                                      1 ;--------------------------------------------------------
                                      2 ; File Created by SDCC : free open source ANSI-C Compiler
                                      3 ; Version 3.6.0 #9615 (MINGW32)
                                      4 ;--------------------------------------------------------
                                      5 	.module main
                                      6 	.optsdcc -mmcs51 --model-large
                                      7 	
                                      8 ;--------------------------------------------------------
                                      9 ; Public variables in this module
                                     10 ;--------------------------------------------------------
                                     11 	.globl _main
                                     12 	.globl _SendMessage
                                     13 	.globl _process_type
                                     14 	.globl _process_time
                                     15 	.globl _process_rx
                                     16 	.globl _RF24readMessage
                                     17 	.globl _RF24write
                                     18 	.globl _flush_fifo_irq
                                     19 	.globl _BuildApollonMessage
                                     20 	.globl _BuildMessage
                                     21 	.globl _isrINTERRUPT_VECTOR_T0
                                     22 	.globl _adc_configure
                                     23 	.globl _pwr_clk_mgmt_clklf_configure
                                     24 	.globl _timer0_configure
                                     25 	.globl _gpio_pin_configure
                                     26 	.globl _rf_spi_execute_command
                                     27 	.globl _rf_irq_clear_all
                                     28 	.globl _rf_spi_configure_enable
                                     29 	.globl _rf_read_rx_payload_width
                                     30 	.globl _rf_read_rx_payload
                                     31 	.globl _rf_set_rx_addr
                                     32 	.globl _rf_set_tx_addr
                                     33 	.globl _rf_write_register
                                     34 	.globl _rf_power_up_param
                                     35 	.globl _delay_us
                                     36 	.globl _FSR_SB_ENDBG
                                     37 	.globl _FSR_SB_STP
                                     38 	.globl _FSR_SB_WEN
                                     39 	.globl _FSR_SB_RDYN
                                     40 	.globl _FSR_SB_INFEN
                                     41 	.globl _FSR_SB_RDISMB
                                     42 	.globl _RFCON_SB_RFCKEN
                                     43 	.globl _RFCON_SB_RFCSN
                                     44 	.globl _RFCON_SB_RFCE
                                     45 	.globl _ADCON_SB_BD
                                     46 	.globl _PSW_SB_P
                                     47 	.globl _PSW_SB_F1
                                     48 	.globl _PSW_SB_OV
                                     49 	.globl _PSW_SB_RS0
                                     50 	.globl _PSW_SB_RS1
                                     51 	.globl _PSW_SB_F0
                                     52 	.globl _PSW_SB_AC
                                     53 	.globl _PSW_SB_CY
                                     54 	.globl _T2CON_SB_T2PS
                                     55 	.globl _T2CON_SB_I3FR
                                     56 	.globl _T2CON_SB_I2FR
                                     57 	.globl _T2CON_SB_T2R1
                                     58 	.globl _T2CON_SB_T2R0
                                     59 	.globl _T2CON_SB_T2CM
                                     60 	.globl _T2CON_SB_T2I1
                                     61 	.globl _T2CON_SB_T2I0
                                     62 	.globl _IRCON_SB_EXF2
                                     63 	.globl _IRCON_SB_TF2
                                     64 	.globl _IRCON_SB_TICK
                                     65 	.globl _IRCON_SB_MISCIRQ
                                     66 	.globl _IRCON_SB_WUOPIRQ
                                     67 	.globl _IRCON_SB_SPI_2WIRE
                                     68 	.globl _IRCON_SB_RFIRQ
                                     69 	.globl _IRCON_SB_RFRDY
                                     70 	.globl _IEN1_SB_T2EXTRLD
                                     71 	.globl _IEN1_SB_TICK
                                     72 	.globl _IEN1_SB_MISCIRQ
                                     73 	.globl _IEN1_SB_WUOPIRQ
                                     74 	.globl _IEN1_SB_SPI_2WIRE
                                     75 	.globl _IEN1_SB_RFIRQ
                                     76 	.globl _IEN1_SB_RFRDY
                                     77 	.globl _P3_SB_D7
                                     78 	.globl _P3_SB_D6
                                     79 	.globl _P3_SB_D5
                                     80 	.globl _P3_SB_D4
                                     81 	.globl _P3_SB_D3
                                     82 	.globl _P3_SB_D2
                                     83 	.globl _P3_SB_D1
                                     84 	.globl _P3_SB_D0
                                     85 	.globl _IEN0_SB_GLOBAL
                                     86 	.globl _IEN0_SB_T2
                                     87 	.globl _IEN0_SB_UART
                                     88 	.globl _IEN0_SB_T1
                                     89 	.globl _IEN0_SB_POFIRQ
                                     90 	.globl _IEN0_SB_T0
                                     91 	.globl _IEN0_SB_IFP
                                     92 	.globl _P2_SB_D7
                                     93 	.globl _P2_SB_D6
                                     94 	.globl _P2_SB_D5
                                     95 	.globl _P2_SB_D4
                                     96 	.globl _P2_SB_D3
                                     97 	.globl _P2_SB_D2
                                     98 	.globl _P2_SB_D1
                                     99 	.globl _P2_SB_D0
                                    100 	.globl _S0CON_SB_SM0
                                    101 	.globl _S0CON_SB_SM1
                                    102 	.globl _S0CON_SB_SM20
                                    103 	.globl _S0CON_SB_REN0
                                    104 	.globl _S0CON_SB_TB80
                                    105 	.globl _S0CON_SB_RB80
                                    106 	.globl _S0CON_SB_TI0
                                    107 	.globl _S0CON_SB_RI0
                                    108 	.globl _P1_SB_D7
                                    109 	.globl _P1_SB_D6
                                    110 	.globl _P1_SB_D5
                                    111 	.globl _P1_SB_D4
                                    112 	.globl _P1_SB_D3
                                    113 	.globl _P1_SB_D2
                                    114 	.globl _P1_SB_D1
                                    115 	.globl _P1_SB_D0
                                    116 	.globl _TCON_SB_TF1
                                    117 	.globl _TCON_SB_TR1
                                    118 	.globl _TCON_SB_TF0
                                    119 	.globl _TCON_SB_TR0
                                    120 	.globl _TCON_SB_IE1
                                    121 	.globl _TCON_SB_IT1
                                    122 	.globl _TCON_SB_IE0
                                    123 	.globl _TCON_SB_IT0
                                    124 	.globl _P0_SB_D7
                                    125 	.globl _P0_SB_D6
                                    126 	.globl _P0_SB_D5
                                    127 	.globl _P0_SB_D4
                                    128 	.globl _P0_SB_D3
                                    129 	.globl _P0_SB_D2
                                    130 	.globl _P0_SB_D1
                                    131 	.globl _P0_SB_D0
                                    132 	.globl _ADCDAT
                                    133 	.globl _S0REL
                                    134 	.globl _T2
                                    135 	.globl _T1
                                    136 	.globl _T0
                                    137 	.globl _CRC
                                    138 	.globl _CC3
                                    139 	.globl _CC2
                                    140 	.globl _CC1
                                    141 	.globl _SPIMDAT
                                    142 	.globl _SPIMSTAT
                                    143 	.globl _SPIMCON1
                                    144 	.globl _SPIMCON0
                                    145 	.globl _FCR
                                    146 	.globl _FPCR
                                    147 	.globl _FSR
                                    148 	.globl _B
                                    149 	.globl _ARCON
                                    150 	.globl _MD5
                                    151 	.globl _MD4
                                    152 	.globl _MD3
                                    153 	.globl _MD2
                                    154 	.globl _MD1
                                    155 	.globl _MD0
                                    156 	.globl _RFCON
                                    157 	.globl _SPIRDAT
                                    158 	.globl _SPIRSTAT
                                    159 	.globl _SPIRCON1
                                    160 	.globl _SPIRCON0
                                    161 	.globl _W2CON0
                                    162 	.globl _W2CON1
                                    163 	.globl _ACC
                                    164 	.globl _CCPDATO
                                    165 	.globl _CCPDATIB
                                    166 	.globl _CCPDATIA
                                    167 	.globl _POFCON
                                    168 	.globl _COMPCON
                                    169 	.globl _W2DAT
                                    170 	.globl _W2SADR
                                    171 	.globl _ADCON
                                    172 	.globl _RNGDAT
                                    173 	.globl _RNGCTL
                                    174 	.globl _ADCDATL
                                    175 	.globl _ADCDATH
                                    176 	.globl _ADCCON1
                                    177 	.globl _ADCCON2
                                    178 	.globl _ADCCON3
                                    179 	.globl _PSW
                                    180 	.globl _WUOPC0
                                    181 	.globl _WUOPC1
                                    182 	.globl _TH2
                                    183 	.globl _TL2
                                    184 	.globl _CRCH
                                    185 	.globl _CRCL
                                    186 	.globl __XPAGE
                                    187 	.globl _MPAGE
                                    188 	.globl _T2CON
                                    189 	.globl _CCH3
                                    190 	.globl _CCL3
                                    191 	.globl _CCH2
                                    192 	.globl _CCL2
                                    193 	.globl _CCH1
                                    194 	.globl _CCL1
                                    195 	.globl _CCEN
                                    196 	.globl _IRCON
                                    197 	.globl _SPISDAT
                                    198 	.globl _SPISSTAT
                                    199 	.globl _SPISCON1
                                    200 	.globl _SPISCON0
                                    201 	.globl _S0RELH
                                    202 	.globl _IP1
                                    203 	.globl _IEN1
                                    204 	.globl _SPISRDSZ
                                    205 	.globl _RTC2CPT00
                                    206 	.globl _RTC2CMP1
                                    207 	.globl _RTC2CMP0
                                    208 	.globl _RTC2CON
                                    209 	.globl _PWMCON
                                    210 	.globl _RSTREAS
                                    211 	.globl _P3
                                    212 	.globl _WDSV
                                    213 	.globl _OPMCON
                                    214 	.globl _CLKLFCTRL
                                    215 	.globl _RTC2CPT10
                                    216 	.globl _RTC2CPT01
                                    217 	.globl _S0RELL
                                    218 	.globl _IP0
                                    219 	.globl _IEN0
                                    220 	.globl _MEMCON
                                    221 	.globl _INTEXP
                                    222 	.globl _WUCON
                                    223 	.globl _PWRDWN
                                    224 	.globl _CLKCTRL
                                    225 	.globl _PWMDC1
                                    226 	.globl _PWMDC0
                                    227 	.globl _P2
                                    228 	.globl _P1CON
                                    229 	.globl _P0CON
                                    230 	.globl _S0BUF
                                    231 	.globl _S0CON
                                    232 	.globl _P2CON
                                    233 	.globl _P3DIR
                                    234 	.globl _P2DIR
                                    235 	.globl _P1DIR
                                    236 	.globl _P0DIR
                                    237 	.globl _DPS
                                    238 	.globl _P1
                                    239 	.globl _P3CON
                                    240 	.globl _TH1
                                    241 	.globl _TH0
                                    242 	.globl _TL1
                                    243 	.globl _TL0
                                    244 	.globl _TMOD
                                    245 	.globl _TCON
                                    246 	.globl _PCON
                                    247 	.globl _DPH1
                                    248 	.globl _DPL1
                                    249 	.globl _DPH
                                    250 	.globl _DPL
                                    251 	.globl _SP
                                    252 	.globl _P0
                                    253 	.globl _mcs
                                    254 	.globl _ml
                                    255 	.globl _base_addr
                                    256 	.globl _RF24write_PARM_4
                                    257 	.globl _RF24write_PARM_3
                                    258 	.globl _RF24write_PARM_2
                                    259 	.globl _write_buf_PARM_3
                                    260 	.globl _write_buf_PARM_2
                                    261 	.globl _BuildApollonMessage_PARM_3
                                    262 	.globl _BuildApollonMessage_PARM_2
                                    263 	.globl _inMsg
                                    264 	.globl _outMsg
                                    265 	.globl _brightValue
                                    266 	.globl _uvValue
                                    267 ;--------------------------------------------------------
                                    268 ; special function registers
                                    269 ;--------------------------------------------------------
                                    270 	.area RSEG    (ABS,DATA)
      000000                        271 	.org 0x0000
                           000080   272 _P0	=	0x0080
                           000081   273 _SP	=	0x0081
                           000082   274 _DPL	=	0x0082
                           000083   275 _DPH	=	0x0083
                           000084   276 _DPL1	=	0x0084
                           000085   277 _DPH1	=	0x0085
                           000087   278 _PCON	=	0x0087
                           000088   279 _TCON	=	0x0088
                           000089   280 _TMOD	=	0x0089
                           00008A   281 _TL0	=	0x008a
                           00008B   282 _TL1	=	0x008b
                           00008C   283 _TH0	=	0x008c
                           00008D   284 _TH1	=	0x008d
                           00008F   285 _P3CON	=	0x008f
                           000090   286 _P1	=	0x0090
                           000092   287 _DPS	=	0x0092
                           000093   288 _P0DIR	=	0x0093
                           000094   289 _P1DIR	=	0x0094
                           000095   290 _P2DIR	=	0x0095
                           000096   291 _P3DIR	=	0x0096
                           000097   292 _P2CON	=	0x0097
                           000098   293 _S0CON	=	0x0098
                           000099   294 _S0BUF	=	0x0099
                           00009E   295 _P0CON	=	0x009e
                           00009F   296 _P1CON	=	0x009f
                           0000A0   297 _P2	=	0x00a0
                           0000A1   298 _PWMDC0	=	0x00a1
                           0000A2   299 _PWMDC1	=	0x00a2
                           0000A3   300 _CLKCTRL	=	0x00a3
                           0000A4   301 _PWRDWN	=	0x00a4
                           0000A5   302 _WUCON	=	0x00a5
                           0000A6   303 _INTEXP	=	0x00a6
                           0000A7   304 _MEMCON	=	0x00a7
                           0000A8   305 _IEN0	=	0x00a8
                           0000A9   306 _IP0	=	0x00a9
                           0000AA   307 _S0RELL	=	0x00aa
                           0000AB   308 _RTC2CPT01	=	0x00ab
                           0000AC   309 _RTC2CPT10	=	0x00ac
                           0000AD   310 _CLKLFCTRL	=	0x00ad
                           0000AE   311 _OPMCON	=	0x00ae
                           0000AF   312 _WDSV	=	0x00af
                           0000B0   313 _P3	=	0x00b0
                           0000B1   314 _RSTREAS	=	0x00b1
                           0000B2   315 _PWMCON	=	0x00b2
                           0000B3   316 _RTC2CON	=	0x00b3
                           0000B4   317 _RTC2CMP0	=	0x00b4
                           0000B5   318 _RTC2CMP1	=	0x00b5
                           0000B6   319 _RTC2CPT00	=	0x00b6
                           0000B7   320 _SPISRDSZ	=	0x00b7
                           0000B8   321 _IEN1	=	0x00b8
                           0000B9   322 _IP1	=	0x00b9
                           0000BA   323 _S0RELH	=	0x00ba
                           0000BC   324 _SPISCON0	=	0x00bc
                           0000BD   325 _SPISCON1	=	0x00bd
                           0000BE   326 _SPISSTAT	=	0x00be
                           0000BF   327 _SPISDAT	=	0x00bf
                           0000C0   328 _IRCON	=	0x00c0
                           0000C1   329 _CCEN	=	0x00c1
                           0000C2   330 _CCL1	=	0x00c2
                           0000C3   331 _CCH1	=	0x00c3
                           0000C4   332 _CCL2	=	0x00c4
                           0000C5   333 _CCH2	=	0x00c5
                           0000C6   334 _CCL3	=	0x00c6
                           0000C7   335 _CCH3	=	0x00c7
                           0000C8   336 _T2CON	=	0x00c8
                           0000C9   337 _MPAGE	=	0x00c9
                           0000C9   338 __XPAGE	=	0x00c9
                           0000CA   339 _CRCL	=	0x00ca
                           0000CB   340 _CRCH	=	0x00cb
                           0000CC   341 _TL2	=	0x00cc
                           0000CD   342 _TH2	=	0x00cd
                           0000CE   343 _WUOPC1	=	0x00ce
                           0000CF   344 _WUOPC0	=	0x00cf
                           0000D0   345 _PSW	=	0x00d0
                           0000D1   346 _ADCCON3	=	0x00d1
                           0000D2   347 _ADCCON2	=	0x00d2
                           0000D3   348 _ADCCON1	=	0x00d3
                           0000D4   349 _ADCDATH	=	0x00d4
                           0000D5   350 _ADCDATL	=	0x00d5
                           0000D6   351 _RNGCTL	=	0x00d6
                           0000D7   352 _RNGDAT	=	0x00d7
                           0000D8   353 _ADCON	=	0x00d8
                           0000D9   354 _W2SADR	=	0x00d9
                           0000DA   355 _W2DAT	=	0x00da
                           0000DB   356 _COMPCON	=	0x00db
                           0000DC   357 _POFCON	=	0x00dc
                           0000DD   358 _CCPDATIA	=	0x00dd
                           0000DE   359 _CCPDATIB	=	0x00de
                           0000DF   360 _CCPDATO	=	0x00df
                           0000E0   361 _ACC	=	0x00e0
                           0000E1   362 _W2CON1	=	0x00e1
                           0000E2   363 _W2CON0	=	0x00e2
                           0000E4   364 _SPIRCON0	=	0x00e4
                           0000E5   365 _SPIRCON1	=	0x00e5
                           0000E6   366 _SPIRSTAT	=	0x00e6
                           0000E7   367 _SPIRDAT	=	0x00e7
                           0000E8   368 _RFCON	=	0x00e8
                           0000E9   369 _MD0	=	0x00e9
                           0000EA   370 _MD1	=	0x00ea
                           0000EB   371 _MD2	=	0x00eb
                           0000EC   372 _MD3	=	0x00ec
                           0000ED   373 _MD4	=	0x00ed
                           0000EE   374 _MD5	=	0x00ee
                           0000EF   375 _ARCON	=	0x00ef
                           0000F0   376 _B	=	0x00f0
                           0000F8   377 _FSR	=	0x00f8
                           0000F9   378 _FPCR	=	0x00f9
                           0000FA   379 _FCR	=	0x00fa
                           0000FC   380 _SPIMCON0	=	0x00fc
                           0000FD   381 _SPIMCON1	=	0x00fd
                           0000FE   382 _SPIMSTAT	=	0x00fe
                           0000FF   383 _SPIMDAT	=	0x00ff
                           00C3C2   384 _CC1	=	0xc3c2
                           00C5C4   385 _CC2	=	0xc5c4
                           00C7C6   386 _CC3	=	0xc7c6
                           00CBCA   387 _CRC	=	0xcbca
                           008C8A   388 _T0	=	0x8c8a
                           008D8B   389 _T1	=	0x8d8b
                           00CDCC   390 _T2	=	0xcdcc
                           00BAAA   391 _S0REL	=	0xbaaa
                           00D4D5   392 _ADCDAT	=	0xd4d5
                                    393 ;--------------------------------------------------------
                                    394 ; special function bits
                                    395 ;--------------------------------------------------------
                                    396 	.area RSEG    (ABS,DATA)
      000000                        397 	.org 0x0000
                           000080   398 _P0_SB_D0	=	0x0080
                           000081   399 _P0_SB_D1	=	0x0081
                           000082   400 _P0_SB_D2	=	0x0082
                           000083   401 _P0_SB_D3	=	0x0083
                           000084   402 _P0_SB_D4	=	0x0084
                           000085   403 _P0_SB_D5	=	0x0085
                           000086   404 _P0_SB_D6	=	0x0086
                           000087   405 _P0_SB_D7	=	0x0087
                           000088   406 _TCON_SB_IT0	=	0x0088
                           000089   407 _TCON_SB_IE0	=	0x0089
                           00008A   408 _TCON_SB_IT1	=	0x008a
                           00008B   409 _TCON_SB_IE1	=	0x008b
                           00008C   410 _TCON_SB_TR0	=	0x008c
                           00008D   411 _TCON_SB_TF0	=	0x008d
                           00008E   412 _TCON_SB_TR1	=	0x008e
                           00008F   413 _TCON_SB_TF1	=	0x008f
                           000090   414 _P1_SB_D0	=	0x0090
                           000091   415 _P1_SB_D1	=	0x0091
                           000092   416 _P1_SB_D2	=	0x0092
                           000093   417 _P1_SB_D3	=	0x0093
                           000094   418 _P1_SB_D4	=	0x0094
                           000095   419 _P1_SB_D5	=	0x0095
                           000096   420 _P1_SB_D6	=	0x0096
                           000097   421 _P1_SB_D7	=	0x0097
                           000098   422 _S0CON_SB_RI0	=	0x0098
                           000099   423 _S0CON_SB_TI0	=	0x0099
                           00009A   424 _S0CON_SB_RB80	=	0x009a
                           00009B   425 _S0CON_SB_TB80	=	0x009b
                           00009C   426 _S0CON_SB_REN0	=	0x009c
                           00009D   427 _S0CON_SB_SM20	=	0x009d
                           00009E   428 _S0CON_SB_SM1	=	0x009e
                           00009F   429 _S0CON_SB_SM0	=	0x009f
                           0000A0   430 _P2_SB_D0	=	0x00a0
                           0000A1   431 _P2_SB_D1	=	0x00a1
                           0000A2   432 _P2_SB_D2	=	0x00a2
                           0000A3   433 _P2_SB_D3	=	0x00a3
                           0000A4   434 _P2_SB_D4	=	0x00a4
                           0000A5   435 _P2_SB_D5	=	0x00a5
                           0000A6   436 _P2_SB_D6	=	0x00a6
                           0000A7   437 _P2_SB_D7	=	0x00a7
                           0000A8   438 _IEN0_SB_IFP	=	0x00a8
                           0000A9   439 _IEN0_SB_T0	=	0x00a9
                           0000AA   440 _IEN0_SB_POFIRQ	=	0x00aa
                           0000AB   441 _IEN0_SB_T1	=	0x00ab
                           0000AC   442 _IEN0_SB_UART	=	0x00ac
                           0000AD   443 _IEN0_SB_T2	=	0x00ad
                           0000AF   444 _IEN0_SB_GLOBAL	=	0x00af
                           0000B0   445 _P3_SB_D0	=	0x00b0
                           0000B1   446 _P3_SB_D1	=	0x00b1
                           0000B2   447 _P3_SB_D2	=	0x00b2
                           0000B3   448 _P3_SB_D3	=	0x00b3
                           0000B4   449 _P3_SB_D4	=	0x00b4
                           0000B5   450 _P3_SB_D5	=	0x00b5
                           0000B6   451 _P3_SB_D6	=	0x00b6
                           0000B7   452 _P3_SB_D7	=	0x00b7
                           0000B8   453 _IEN1_SB_RFRDY	=	0x00b8
                           0000B9   454 _IEN1_SB_RFIRQ	=	0x00b9
                           0000BA   455 _IEN1_SB_SPI_2WIRE	=	0x00ba
                           0000BB   456 _IEN1_SB_WUOPIRQ	=	0x00bb
                           0000BC   457 _IEN1_SB_MISCIRQ	=	0x00bc
                           0000BD   458 _IEN1_SB_TICK	=	0x00bd
                           0000BF   459 _IEN1_SB_T2EXTRLD	=	0x00bf
                           0000C0   460 _IRCON_SB_RFRDY	=	0x00c0
                           0000C1   461 _IRCON_SB_RFIRQ	=	0x00c1
                           0000C2   462 _IRCON_SB_SPI_2WIRE	=	0x00c2
                           0000C3   463 _IRCON_SB_WUOPIRQ	=	0x00c3
                           0000C4   464 _IRCON_SB_MISCIRQ	=	0x00c4
                           0000C5   465 _IRCON_SB_TICK	=	0x00c5
                           0000C6   466 _IRCON_SB_TF2	=	0x00c6
                           0000C7   467 _IRCON_SB_EXF2	=	0x00c7
                           0000C8   468 _T2CON_SB_T2I0	=	0x00c8
                           0000C9   469 _T2CON_SB_T2I1	=	0x00c9
                           0000CA   470 _T2CON_SB_T2CM	=	0x00ca
                           0000CB   471 _T2CON_SB_T2R0	=	0x00cb
                           0000CC   472 _T2CON_SB_T2R1	=	0x00cc
                           0000CD   473 _T2CON_SB_I2FR	=	0x00cd
                           0000CE   474 _T2CON_SB_I3FR	=	0x00ce
                           0000CF   475 _T2CON_SB_T2PS	=	0x00cf
                           0000D7   476 _PSW_SB_CY	=	0x00d7
                           0000D6   477 _PSW_SB_AC	=	0x00d6
                           0000D5   478 _PSW_SB_F0	=	0x00d5
                           0000D4   479 _PSW_SB_RS1	=	0x00d4
                           0000D3   480 _PSW_SB_RS0	=	0x00d3
                           0000D2   481 _PSW_SB_OV	=	0x00d2
                           0000D1   482 _PSW_SB_F1	=	0x00d1
                           0000D0   483 _PSW_SB_P	=	0x00d0
                           0000DF   484 _ADCON_SB_BD	=	0x00df
                           0000E8   485 _RFCON_SB_RFCE	=	0x00e8
                           0000E9   486 _RFCON_SB_RFCSN	=	0x00e9
                           0000EA   487 _RFCON_SB_RFCKEN	=	0x00ea
                           0000FA   488 _FSR_SB_RDISMB	=	0x00fa
                           0000FB   489 _FSR_SB_INFEN	=	0x00fb
                           0000FC   490 _FSR_SB_RDYN	=	0x00fc
                           0000FD   491 _FSR_SB_WEN	=	0x00fd
                           0000FE   492 _FSR_SB_STP	=	0x00fe
                           0000FF   493 _FSR_SB_ENDBG	=	0x00ff
                                    494 ;--------------------------------------------------------
                                    495 ; overlayable register banks
                                    496 ;--------------------------------------------------------
                                    497 	.area REG_BANK_0	(REL,OVR,DATA)
      000000                        498 	.ds 8
                                    499 ;--------------------------------------------------------
                                    500 ; internal ram data
                                    501 ;--------------------------------------------------------
                                    502 	.area DSEG    (DATA)
      000008                        503 _process_time_sloc0_1_0:
      000008                        504 	.ds 2
      00000A                        505 _process_type_sloc0_1_0:
      00000A                        506 	.ds 4
                                    507 ;--------------------------------------------------------
                                    508 ; overlayable items in internal ram 
                                    509 ;--------------------------------------------------------
                                    510 ;--------------------------------------------------------
                                    511 ; Stack segment in internal ram 
                                    512 ;--------------------------------------------------------
                                    513 	.area	SSEG
      000012                        514 __start__stack:
      000012                        515 	.ds	1
                                    516 
                                    517 ;--------------------------------------------------------
                                    518 ; indirectly addressable internal ram data
                                    519 ;--------------------------------------------------------
                                    520 	.area ISEG    (DATA)
                                    521 ;--------------------------------------------------------
                                    522 ; absolute internal ram data
                                    523 ;--------------------------------------------------------
                                    524 	.area IABS    (ABS,DATA)
                                    525 	.area IABS    (ABS,DATA)
                                    526 ;--------------------------------------------------------
                                    527 ; bit data
                                    528 ;--------------------------------------------------------
                                    529 	.area BSEG    (BIT)
                                    530 ;--------------------------------------------------------
                                    531 ; paged external ram data
                                    532 ;--------------------------------------------------------
                                    533 	.area PSEG    (PAG,XDATA)
                                    534 ;--------------------------------------------------------
                                    535 ; external ram data
                                    536 ;--------------------------------------------------------
                                    537 	.area XSEG    (XDATA)
      000001                        538 _uvValue::
      000001                        539 	.ds 4
      000005                        540 _brightValue::
      000005                        541 	.ds 4
      000009                        542 _outMsg::
      000009                        543 	.ds 33
      00002A                        544 _inMsg::
      00002A                        545 	.ds 33
      00004B                        546 _BuildMessage_command_1_112:
      00004B                        547 	.ds 1
      00004C                        548 _BuildApollonMessage_PARM_2:
      00004C                        549 	.ds 4
      000050                        550 _BuildApollonMessage_PARM_3:
      000050                        551 	.ds 4
      000054                        552 _BuildApollonMessage_command_1_114:
      000054                        553 	.ds 1
      000055                        554 _write_buf_PARM_2:
      000055                        555 	.ds 1
      000056                        556 _write_buf_PARM_3:
      000056                        557 	.ds 1
      000057                        558 _RF24write_PARM_2:
      000057                        559 	.ds 3
      00005A                        560 _RF24write_PARM_3:
      00005A                        561 	.ds 1
      00005B                        562 _RF24write_PARM_4:
      00005B                        563 	.ds 1
      00005C                        564 _RF24write_nextnode_1_120:
      00005C                        565 	.ds 1
      00005D                        566 _RF24write_config_1_121:
      00005D                        567 	.ds 1
      00005E                        568 _getDynamicPayloadSize_result_1_127:
      00005E                        569 	.ds 1
      00005F                        570 _RF24readMessage_buf_1_129:
      00005F                        571 	.ds 3
      000062                        572 _RF24readMessage_payload_length_1_130:
      000062                        573 	.ds 1
      000063                        574 _RF24readMessage_result_4_133:
      000063                        575 	.ds 1
      000064                        576 _process_rx_result_1_135:
      000064                        577 	.ds 1
      000065                        578 _process_time_wait_time_1_137:
      000065                        579 	.ds 2
      000067                        580 _process_type_response_1_140:
      000067                        581 	.ds 1
      000068                        582 _SendMessage_address_1_146:
      000068                        583 	.ds 1
      000069                        584 _RF24init_config_1_148:
      000069                        585 	.ds 1
      00006A                        586 _setup_config_4_159:
      00006A                        587 	.ds 1
      00006B                        588 _main_config_7_173:
      00006B                        589 	.ds 1
                                    590 ;--------------------------------------------------------
                                    591 ; absolute external ram data
                                    592 ;--------------------------------------------------------
                                    593 	.area XABS    (ABS,XDATA)
                                    594 ;--------------------------------------------------------
                                    595 ; external initialized ram data
                                    596 ;--------------------------------------------------------
                                    597 	.area XISEG   (XDATA)
      0000A2                        598 _base_addr::
      0000A2                        599 	.ds 5
      0000A7                        600 _ml::
      0000A7                        601 	.ds 4
      0000AB                        602 _mcs::
      0000AB                        603 	.ds 1
                                    604 	.area HOME    (CODE)
                                    605 	.area GSINIT0 (CODE)
                                    606 	.area GSINIT1 (CODE)
                                    607 	.area GSINIT2 (CODE)
                                    608 	.area GSINIT3 (CODE)
                                    609 	.area GSINIT4 (CODE)
                                    610 	.area GSINIT5 (CODE)
                                    611 	.area GSINIT  (CODE)
                                    612 	.area GSFINAL (CODE)
                                    613 	.area CSEG    (CODE)
                                    614 ;--------------------------------------------------------
                                    615 ; interrupt vector 
                                    616 ;--------------------------------------------------------
                                    617 	.area HOME    (CODE)
      000000                        618 __interrupt_vect:
      000000 02 00 11         [24]  619 	ljmp	__sdcc_gsinit_startup
      000003 32               [24]  620 	reti
      000004                        621 	.ds	7
      00000B 02 00 6D         [24]  622 	ljmp	_isrINTERRUPT_VECTOR_T0
                                    623 ;--------------------------------------------------------
                                    624 ; global & static initialisations
                                    625 ;--------------------------------------------------------
                                    626 	.area HOME    (CODE)
                                    627 	.area GSINIT  (CODE)
                                    628 	.area GSFINAL (CODE)
                                    629 	.area GSINIT  (CODE)
                                    630 	.globl __sdcc_gsinit_startup
                                    631 	.globl __sdcc_program_startup
                                    632 	.globl __start__stack
                                    633 	.globl __mcs51_genXINIT
                                    634 	.globl __mcs51_genXRAMCLEAR
                                    635 	.globl __mcs51_genRAMCLEAR
                                    636 	.area GSFINAL (CODE)
      00006A 02 00 0E         [24]  637 	ljmp	__sdcc_program_startup
                                    638 ;--------------------------------------------------------
                                    639 ; Home
                                    640 ;--------------------------------------------------------
                                    641 	.area HOME    (CODE)
                                    642 	.area HOME    (CODE)
      00000E                        643 __sdcc_program_startup:
      00000E 02 04 58         [24]  644 	ljmp	_main
                                    645 ;	return from main will return to caller
                                    646 ;--------------------------------------------------------
                                    647 ; code
                                    648 ;--------------------------------------------------------
                                    649 	.area CSEG    (CODE)
                                    650 ;------------------------------------------------------------
                                    651 ;Allocation info for local variables in function 'isrINTERRUPT_VECTOR_T0'
                                    652 ;------------------------------------------------------------
                                    653 ;	main.c:54: ISR(INTERRUPT_VECTOR_T0){
                                    654 ;	-----------------------------------------
                                    655 ;	 function isrINTERRUPT_VECTOR_T0
                                    656 ;	-----------------------------------------
      00006D                        657 _isrINTERRUPT_VECTOR_T0:
                           000007   658 	ar7 = 0x07
                           000006   659 	ar6 = 0x06
                           000005   660 	ar5 = 0x05
                           000004   661 	ar4 = 0x04
                           000003   662 	ar3 = 0x03
                           000002   663 	ar2 = 0x02
                           000001   664 	ar1 = 0x01
                           000000   665 	ar0 = 0x00
      00006D C0 E0            [24]  666 	push	acc
      00006F C0 82            [24]  667 	push	dpl
      000071 C0 83            [24]  668 	push	dph
      000073 C0 07            [24]  669 	push	ar7
      000075 C0 D0            [24]  670 	push	psw
      000077 75 D0 00         [24]  671 	mov	psw,#0x00
                                    672 ;	main.c:55: TL0 = TLSTART;
      00007A 75 8A 22         [24]  673 	mov	_TL0,#0x22
                                    674 ;	main.c:56: if (mcs>=6) {
      00007D 90 00 AB         [24]  675 	mov	dptr,#_mcs
      000080 E0               [24]  676 	movx	a,@dptr
      000081 FF               [12]  677 	mov	r7,a
      000082 BF 06 00         [24]  678 	cjne	r7,#0x06,00108$
      000085                        679 00108$:
      000085 40 1B            [24]  680 	jc	00102$
                                    681 ;	main.c:57: ml++;
      000087 90 00 A7         [24]  682 	mov	dptr,#_ml
      00008A E0               [24]  683 	movx	a,@dptr
      00008B 24 01            [12]  684 	add	a,#0x01
      00008D F0               [24]  685 	movx	@dptr,a
      00008E A3               [24]  686 	inc	dptr
      00008F E0               [24]  687 	movx	a,@dptr
      000090 34 00            [12]  688 	addc	a,#0x00
      000092 F0               [24]  689 	movx	@dptr,a
      000093 A3               [24]  690 	inc	dptr
      000094 E0               [24]  691 	movx	a,@dptr
      000095 34 00            [12]  692 	addc	a,#0x00
      000097 F0               [24]  693 	movx	@dptr,a
      000098 A3               [24]  694 	inc	dptr
      000099 E0               [24]  695 	movx	a,@dptr
      00009A 34 00            [12]  696 	addc	a,#0x00
      00009C F0               [24]  697 	movx	@dptr,a
                                    698 ;	main.c:58: mcs=0;
      00009D 90 00 AB         [24]  699 	mov	dptr,#_mcs
      0000A0 E4               [12]  700 	clr	a
      0000A1 F0               [24]  701 	movx	@dptr,a
      0000A2                        702 00102$:
                                    703 ;	main.c:60: mcs++;
      0000A2 90 00 AB         [24]  704 	mov	dptr,#_mcs
      0000A5 E0               [24]  705 	movx	a,@dptr
      0000A6 24 01            [12]  706 	add	a,#0x01
      0000A8 F0               [24]  707 	movx	@dptr,a
      0000A9 D0 D0            [24]  708 	pop	psw
      0000AB D0 07            [24]  709 	pop	ar7
      0000AD D0 83            [24]  710 	pop	dph
      0000AF D0 82            [24]  711 	pop	dpl
      0000B1 D0 E0            [24]  712 	pop	acc
      0000B3 32               [24]  713 	reti
                                    714 ;	eliminated unneeded push/pop b
                                    715 ;------------------------------------------------------------
                                    716 ;Allocation info for local variables in function 'BuildMessage'
                                    717 ;------------------------------------------------------------
                                    718 ;command                   Allocated with name '_BuildMessage_command_1_112'
                                    719 ;------------------------------------------------------------
                                    720 ;	main.c:70: void BuildMessage(uint8_t command) {
                                    721 ;	-----------------------------------------
                                    722 ;	 function BuildMessage
                                    723 ;	-----------------------------------------
      0000B4                        724 _BuildMessage:
      0000B4 E5 82            [12]  725 	mov	a,dpl
      0000B6 90 00 4B         [24]  726 	mov	dptr,#_BuildMessage_command_1_112
      0000B9 F0               [24]  727 	movx	@dptr,a
                                    728 ;	main.c:71: outMsg.message.command = command;
      0000BA E0               [24]  729 	movx	a,@dptr
      0000BB 90 00 09         [24]  730 	mov	dptr,#_outMsg
      0000BE F0               [24]  731 	movx	@dptr,a
                                    732 ;	main.c:72: outMsg.message.cardType = LUMINOS_TYPE;
      0000BF 90 00 0A         [24]  733 	mov	dptr,#(_outMsg + 0x0001)
      0000C2 74 01            [12]  734 	mov	a,#0x01
      0000C4 F0               [24]  735 	movx	@dptr,a
      0000C5 22               [24]  736 	ret
                                    737 ;------------------------------------------------------------
                                    738 ;Allocation info for local variables in function 'BuildApollonMessage'
                                    739 ;------------------------------------------------------------
                                    740 ;uvValue                   Allocated with name '_BuildApollonMessage_PARM_2'
                                    741 ;brightValue               Allocated with name '_BuildApollonMessage_PARM_3'
                                    742 ;command                   Allocated with name '_BuildApollonMessage_command_1_114'
                                    743 ;------------------------------------------------------------
                                    744 ;	main.c:75: void BuildApollonMessage(uint8_t command, uint32_t uvValue, uint32_t brightValue) {
                                    745 ;	-----------------------------------------
                                    746 ;	 function BuildApollonMessage
                                    747 ;	-----------------------------------------
      0000C6                        748 _BuildApollonMessage:
      0000C6 E5 82            [12]  749 	mov	a,dpl
      0000C8 90 00 54         [24]  750 	mov	dptr,#_BuildApollonMessage_command_1_114
      0000CB F0               [24]  751 	movx	@dptr,a
                                    752 ;	main.c:76: outMsg.message.command = command;
      0000CC E0               [24]  753 	movx	a,@dptr
      0000CD 90 00 09         [24]  754 	mov	dptr,#_outMsg
      0000D0 F0               [24]  755 	movx	@dptr,a
                                    756 ;	main.c:77: outMsg.message.cardType = LUMINOS_TYPE;
      0000D1 90 00 0A         [24]  757 	mov	dptr,#(_outMsg + 0x0001)
      0000D4 74 01            [12]  758 	mov	a,#0x01
      0000D6 F0               [24]  759 	movx	@dptr,a
                                    760 ;	main.c:78: outMsg.message.messageType.apollonMessage.apollonMessageStruct.sensor1 = UV;
      0000D7 90 00 0B         [24]  761 	mov	dptr,#(_outMsg + 0x0002)
      0000DA 74 0C            [12]  762 	mov	a,#0x0c
      0000DC F0               [24]  763 	movx	@dptr,a
                                    764 ;	main.c:79: outMsg.message.messageType.apollonMessage.apollonMessageStruct.uvValue= uvValue;
      0000DD 90 00 4C         [24]  765 	mov	dptr,#_BuildApollonMessage_PARM_2
      0000E0 E0               [24]  766 	movx	a,@dptr
      0000E1 FC               [12]  767 	mov	r4,a
      0000E2 A3               [24]  768 	inc	dptr
      0000E3 E0               [24]  769 	movx	a,@dptr
      0000E4 FD               [12]  770 	mov	r5,a
      0000E5 A3               [24]  771 	inc	dptr
      0000E6 E0               [24]  772 	movx	a,@dptr
      0000E7 FE               [12]  773 	mov	r6,a
      0000E8 A3               [24]  774 	inc	dptr
      0000E9 E0               [24]  775 	movx	a,@dptr
      0000EA FF               [12]  776 	mov	r7,a
      0000EB 90 00 0C         [24]  777 	mov	dptr,#(_outMsg + 0x0003)
      0000EE EC               [12]  778 	mov	a,r4
      0000EF F0               [24]  779 	movx	@dptr,a
      0000F0 ED               [12]  780 	mov	a,r5
      0000F1 A3               [24]  781 	inc	dptr
      0000F2 F0               [24]  782 	movx	@dptr,a
      0000F3 EE               [12]  783 	mov	a,r6
      0000F4 A3               [24]  784 	inc	dptr
      0000F5 F0               [24]  785 	movx	@dptr,a
      0000F6 EF               [12]  786 	mov	a,r7
      0000F7 A3               [24]  787 	inc	dptr
      0000F8 F0               [24]  788 	movx	@dptr,a
                                    789 ;	main.c:80: outMsg.message.messageType.apollonMessage.apollonMessageStruct.sensor2 = BRIGHTNESS;
      0000F9 90 00 10         [24]  790 	mov	dptr,#(_outMsg + 0x0007)
      0000FC 74 04            [12]  791 	mov	a,#0x04
      0000FE F0               [24]  792 	movx	@dptr,a
                                    793 ;	main.c:81: outMsg.message.messageType.apollonMessage.apollonMessageStruct.brigthValue = brightValue;
      0000FF 90 00 50         [24]  794 	mov	dptr,#_BuildApollonMessage_PARM_3
      000102 E0               [24]  795 	movx	a,@dptr
      000103 FC               [12]  796 	mov	r4,a
      000104 A3               [24]  797 	inc	dptr
      000105 E0               [24]  798 	movx	a,@dptr
      000106 FD               [12]  799 	mov	r5,a
      000107 A3               [24]  800 	inc	dptr
      000108 E0               [24]  801 	movx	a,@dptr
      000109 FE               [12]  802 	mov	r6,a
      00010A A3               [24]  803 	inc	dptr
      00010B E0               [24]  804 	movx	a,@dptr
      00010C FF               [12]  805 	mov	r7,a
      00010D 90 00 11         [24]  806 	mov	dptr,#(_outMsg + 0x0008)
      000110 EC               [12]  807 	mov	a,r4
      000111 F0               [24]  808 	movx	@dptr,a
      000112 ED               [12]  809 	mov	a,r5
      000113 A3               [24]  810 	inc	dptr
      000114 F0               [24]  811 	movx	@dptr,a
      000115 EE               [12]  812 	mov	a,r6
      000116 A3               [24]  813 	inc	dptr
      000117 F0               [24]  814 	movx	@dptr,a
      000118 EF               [12]  815 	mov	a,r7
      000119 A3               [24]  816 	inc	dptr
      00011A F0               [24]  817 	movx	@dptr,a
      00011B 22               [24]  818 	ret
                                    819 ;------------------------------------------------------------
                                    820 ;Allocation info for local variables in function 'flush_fifo_irq'
                                    821 ;------------------------------------------------------------
                                    822 ;	main.c:104: void flush_fifo_irq() {
                                    823 ;	-----------------------------------------
                                    824 ;	 function flush_fifo_irq
                                    825 ;	-----------------------------------------
      00011C                        826 _flush_fifo_irq:
                                    827 ;	main.c:105: rf_flush_tx();
      00011C 90 00 88         [24]  828 	mov	dptr,#_rf_spi_execute_command_PARM_2
      00011F E4               [12]  829 	clr	a
      000120 F0               [24]  830 	movx	@dptr,a
      000121 A3               [24]  831 	inc	dptr
      000122 F0               [24]  832 	movx	@dptr,a
      000123 A3               [24]  833 	inc	dptr
      000124 F0               [24]  834 	movx	@dptr,a
      000125 90 00 8B         [24]  835 	mov	dptr,#_rf_spi_execute_command_PARM_3
      000128 F0               [24]  836 	movx	@dptr,a
      000129 A3               [24]  837 	inc	dptr
      00012A F0               [24]  838 	movx	@dptr,a
      00012B 90 00 8D         [24]  839 	mov	dptr,#_rf_spi_execute_command_PARM_4
      00012E 04               [12]  840 	inc	a
      00012F F0               [24]  841 	movx	@dptr,a
      000130 75 82 E1         [24]  842 	mov	dpl,#0xe1
      000133 12 07 C1         [24]  843 	lcall	_rf_spi_execute_command
                                    844 ;	main.c:106: rf_flush_rx();
      000136 90 00 88         [24]  845 	mov	dptr,#_rf_spi_execute_command_PARM_2
      000139 E4               [12]  846 	clr	a
      00013A F0               [24]  847 	movx	@dptr,a
      00013B A3               [24]  848 	inc	dptr
      00013C F0               [24]  849 	movx	@dptr,a
      00013D A3               [24]  850 	inc	dptr
      00013E F0               [24]  851 	movx	@dptr,a
      00013F 90 00 8B         [24]  852 	mov	dptr,#_rf_spi_execute_command_PARM_3
      000142 F0               [24]  853 	movx	@dptr,a
      000143 A3               [24]  854 	inc	dptr
      000144 F0               [24]  855 	movx	@dptr,a
      000145 90 00 8D         [24]  856 	mov	dptr,#_rf_spi_execute_command_PARM_4
      000148 04               [12]  857 	inc	a
      000149 F0               [24]  858 	movx	@dptr,a
      00014A 75 82 E2         [24]  859 	mov	dpl,#0xe2
      00014D 12 07 C1         [24]  860 	lcall	_rf_spi_execute_command
                                    861 ;	main.c:107: rf_irq_clear_all();
      000150 02 0A 68         [24]  862 	ljmp	_rf_irq_clear_all
                                    863 ;------------------------------------------------------------
                                    864 ;Allocation info for local variables in function 'RF24write'
                                    865 ;------------------------------------------------------------
                                    866 ;buf                       Allocated with name '_RF24write_PARM_2'
                                    867 ;len                       Allocated with name '_RF24write_PARM_3'
                                    868 ;broadcast                 Allocated with name '_RF24write_PARM_4'
                                    869 ;nextnode                  Allocated with name '_RF24write_nextnode_1_120'
                                    870 ;__00010013                Allocated with name '_RF24write___00010013_4_124'
                                    871 ;config                    Allocated with name '_RF24write_config_1_121'
                                    872 ;result                    Allocated with name '_RF24write_result_1_121'
                                    873 ;__00020014                Allocated with name '_RF24write___00020014_3_123'
                                    874 ;__00020015                Allocated with name '_RF24write___00020015_3_123'
                                    875 ;__00020016                Allocated with name '_RF24write___00020016_3_123'
                                    876 ;buf                       Allocated with name '_RF24write_buf_3_123'
                                    877 ;len                       Allocated with name '_RF24write_len_3_123'
                                    878 ;broadcast                 Allocated with name '_RF24write_broadcast_3_123'
                                    879 ;FIFO_STATUS               Allocated with name '_RF24write_FIFO_STATUS_4_124'
                                    880 ;status                    Allocated with name '_RF24write_status_4_124'
                                    881 ;------------------------------------------------------------
                                    882 ;	main.c:110: bool RF24write(uint8_t nextnode, uint8_t* buf, uint8_t len, bool broadcast) {
                                    883 ;	-----------------------------------------
                                    884 ;	 function RF24write
                                    885 ;	-----------------------------------------
      000153                        886 _RF24write:
      000153 E5 82            [12]  887 	mov	a,dpl
      000155 90 00 5C         [24]  888 	mov	dptr,#_RF24write_nextnode_1_120
      000158 F0               [24]  889 	movx	@dptr,a
                                    890 ;	main.c:115: rf_clear_ce();
      000159 C2 E8            [12]  891 	clr	_RFCON_SB_RFCE 
                                    892 ;	main.c:117: config = RF_CONFIG_PWR_UP | RF_CONFIG_CRCO | RF_CONFIG_EN_CRC;
      00015B 90 00 5D         [24]  893 	mov	dptr,#_RF24write_config_1_121
      00015E 74 0E            [12]  894 	mov	a,#0x0e
      000160 F0               [24]  895 	movx	@dptr,a
                                    896 ;	main.c:118: rf_write_register(RF_CONFIG,&config,1);
      000161 90 00 74         [24]  897 	mov	dptr,#_rf_write_register_PARM_2
      000164 74 5D            [12]  898 	mov	a,#_RF24write_config_1_121
      000166 F0               [24]  899 	movx	@dptr,a
      000167 74 00            [12]  900 	mov	a,#(_RF24write_config_1_121 >> 8)
      000169 A3               [24]  901 	inc	dptr
      00016A F0               [24]  902 	movx	@dptr,a
      00016B E4               [12]  903 	clr	a
      00016C A3               [24]  904 	inc	dptr
      00016D F0               [24]  905 	movx	@dptr,a
      00016E 90 00 77         [24]  906 	mov	dptr,#_rf_write_register_PARM_3
      000171 04               [12]  907 	inc	a
      000172 F0               [24]  908 	movx	@dptr,a
      000173 E4               [12]  909 	clr	a
      000174 A3               [24]  910 	inc	dptr
      000175 F0               [24]  911 	movx	@dptr,a
      000176 75 82 00         [24]  912 	mov	dpl,#0x00
      000179 12 06 C4         [24]  913 	lcall	_rf_write_register
                                    914 ;	main.c:120: flush_fifo_irq();
      00017C 12 01 1C         [24]  915 	lcall	_flush_fifo_irq
                                    916 ;	main.c:122: base_addr[0] = nextnode;
      00017F 90 00 5C         [24]  917 	mov	dptr,#_RF24write_nextnode_1_120
      000182 E0               [24]  918 	movx	a,@dptr
      000183 FF               [12]  919 	mov	r7,a
      000184 90 00 A2         [24]  920 	mov	dptr,#_base_addr
      000187 F0               [24]  921 	movx	@dptr,a
                                    922 ;	main.c:123: rf_set_tx_addr(base_addr, 5);
      000188 90 00 80         [24]  923 	mov	dptr,#_rf_set_tx_addr_PARM_2
      00018B 74 05            [12]  924 	mov	a,#0x05
      00018D F0               [24]  925 	movx	@dptr,a
      00018E E4               [12]  926 	clr	a
      00018F A3               [24]  927 	inc	dptr
      000190 F0               [24]  928 	movx	@dptr,a
      000191 90 00 A2         [24]  929 	mov	dptr,#_base_addr
      000194 75 F0 00         [24]  930 	mov	b,#0x00
      000197 C0 07            [24]  931 	push	ar7
      000199 12 07 4B         [24]  932 	lcall	_rf_set_tx_addr
      00019C D0 07            [24]  933 	pop	ar7
                                    934 ;	main.c:125: base_addr[0] = nextnode;
      00019E 90 00 A2         [24]  935 	mov	dptr,#_base_addr
      0001A1 EF               [12]  936 	mov	a,r7
      0001A2 F0               [24]  937 	movx	@dptr,a
                                    938 ;	main.c:126: rf_set_rx_addr(base_addr, 5, 0);
      0001A3 90 00 7A         [24]  939 	mov	dptr,#_rf_set_rx_addr_PARM_2
      0001A6 74 05            [12]  940 	mov	a,#0x05
      0001A8 F0               [24]  941 	movx	@dptr,a
      0001A9 E4               [12]  942 	clr	a
      0001AA A3               [24]  943 	inc	dptr
      0001AB F0               [24]  944 	movx	@dptr,a
      0001AC 90 00 7C         [24]  945 	mov	dptr,#_rf_set_rx_addr_PARM_3
      0001AF F0               [24]  946 	movx	@dptr,a
      0001B0 90 00 A2         [24]  947 	mov	dptr,#_base_addr
      0001B3 75 F0 00         [24]  948 	mov	b,#0x00
      0001B6 C0 07            [24]  949 	push	ar7
      0001B8 12 07 02         [24]  950 	lcall	_rf_set_rx_addr
      0001BB D0 07            [24]  951 	pop	ar7
                                    952 ;	main.c:129: result = write_buf(buf, len, broadcast);
      0001BD 90 00 5B         [24]  953 	mov	dptr,#_RF24write_PARM_4
      0001C0 E0               [24]  954 	movx	a,@dptr
      0001C1 FE               [12]  955 	mov	r6,a
      0001C2 90 00 5A         [24]  956 	mov	dptr,#_RF24write_PARM_3
      0001C5 E0               [24]  957 	movx	a,@dptr
      0001C6 FD               [12]  958 	mov	r5,a
      0001C7 90 00 57         [24]  959 	mov	dptr,#_RF24write_PARM_2
      0001CA E0               [24]  960 	movx	a,@dptr
      0001CB FA               [12]  961 	mov	r2,a
      0001CC A3               [24]  962 	inc	dptr
      0001CD E0               [24]  963 	movx	a,@dptr
      0001CE FB               [12]  964 	mov	r3,a
      0001CF A3               [24]  965 	inc	dptr
      0001D0 E0               [24]  966 	movx	a,@dptr
      0001D1 FC               [12]  967 	mov	r4,a
                                    968 ;	main.c:88: uint8_t status = rf_spi_execute_command(broadcast ? RF_W_TX_PAYLOAD_NOACK : RF_W_TX_PAYLOAD, buf, len, false);
      0001D2 EE               [12]  969 	mov	a,r6
      0001D3 60 04            [24]  970 	jz	00108$
      0001D5 7E B0            [12]  971 	mov	r6,#0xb0
      0001D7 80 02            [24]  972 	sjmp	00109$
      0001D9                        973 00108$:
      0001D9 7E A0            [12]  974 	mov	r6,#0xa0
      0001DB                        975 00109$:
      0001DB 8D 01            [24]  976 	mov	ar1,r5
      0001DD 7D 00            [12]  977 	mov	r5,#0x00
      0001DF 90 00 88         [24]  978 	mov	dptr,#_rf_spi_execute_command_PARM_2
      0001E2 EA               [12]  979 	mov	a,r2
      0001E3 F0               [24]  980 	movx	@dptr,a
      0001E4 EB               [12]  981 	mov	a,r3
      0001E5 A3               [24]  982 	inc	dptr
      0001E6 F0               [24]  983 	movx	@dptr,a
      0001E7 EC               [12]  984 	mov	a,r4
      0001E8 A3               [24]  985 	inc	dptr
      0001E9 F0               [24]  986 	movx	@dptr,a
      0001EA 90 00 8B         [24]  987 	mov	dptr,#_rf_spi_execute_command_PARM_3
      0001ED E9               [12]  988 	mov	a,r1
      0001EE F0               [24]  989 	movx	@dptr,a
      0001EF ED               [12]  990 	mov	a,r5
      0001F0 A3               [24]  991 	inc	dptr
      0001F1 F0               [24]  992 	movx	@dptr,a
      0001F2 90 00 8D         [24]  993 	mov	dptr,#_rf_spi_execute_command_PARM_4
      0001F5 F0               [24]  994 	movx	@dptr,a
      0001F6 8E 82            [24]  995 	mov	dpl,r6
      0001F8 C0 07            [24]  996 	push	ar7
      0001FA 12 07 C1         [24]  997 	lcall	_rf_spi_execute_command
      0001FD D0 07            [24]  998 	pop	ar7
                                    999 ;	main.c:90: rf_set_ce();
      0001FF D2 E8            [12] 1000 	setb	_RFCON_SB_RFCE 
      000201 90 00 04         [24] 1001 	mov	dptr,#0x0004
      000204 C0 07            [24] 1002 	push	ar7
      000206 12 0B 66         [24] 1003 	lcall	_delay_us
                                   1004 ;	main.c:92: delay_us(CE_PULSE_LENGTH);
      000209 90 00 0A         [24] 1005 	mov	dptr,#0x000a
      00020C 12 0B 66         [24] 1006 	lcall	_delay_us
      00020F D0 07            [24] 1007 	pop	ar7
                                   1008 ;	main.c:94: rf_clear_ce();
      000211 C2 E8            [12] 1009 	clr	_RFCON_SB_RFCE 
                                   1010 ;	main.c:96: do {
      000213                       1011 00101$:
                                   1012 ;	main.c:98: FIFO_STATUS = rf_get_status();
      000213 90 00 88         [24] 1013 	mov	dptr,#_rf_spi_execute_command_PARM_2
      000216 E4               [12] 1014 	clr	a
      000217 F0               [24] 1015 	movx	@dptr,a
      000218 A3               [24] 1016 	inc	dptr
      000219 F0               [24] 1017 	movx	@dptr,a
      00021A A3               [24] 1018 	inc	dptr
      00021B F0               [24] 1019 	movx	@dptr,a
      00021C 90 00 8B         [24] 1020 	mov	dptr,#_rf_spi_execute_command_PARM_3
      00021F F0               [24] 1021 	movx	@dptr,a
      000220 A3               [24] 1022 	inc	dptr
      000221 F0               [24] 1023 	movx	@dptr,a
      000222 90 00 8D         [24] 1024 	mov	dptr,#_rf_spi_execute_command_PARM_4
      000225 04               [12] 1025 	inc	a
      000226 F0               [24] 1026 	movx	@dptr,a
      000227 75 82 FF         [24] 1027 	mov	dpl,#0xff
      00022A C0 07            [24] 1028 	push	ar7
      00022C 12 07 C1         [24] 1029 	lcall	_rf_spi_execute_command
      00022F AE 82            [24] 1030 	mov	r6,dpl
      000231 D0 07            [24] 1031 	pop	ar7
                                   1032 ;	main.c:99: } while( !(FIFO_STATUS & RF_STATUS_TX_DS) && !(FIFO_STATUS & RF_STATUS_MAX_RT) );
      000233 EE               [12] 1033 	mov	a,r6
      000234 20 E5 04         [24] 1034 	jb	acc.5,00104$
      000237 EE               [12] 1035 	mov	a,r6
      000238 30 E4 D8         [24] 1036 	jnb	acc.4,00101$
      00023B                       1037 00104$:
                                   1038 ;	main.c:101: return (FIFO_STATUS & RF_STATUS_TX_DS);
      00023B 53 06 20         [24] 1039 	anl	ar6,#0x20
                                   1040 ;	main.c:131: config = RF_CONFIG_PWR_UP | RF_CONFIG_CRCO | RF_CONFIG_EN_CRC | RF_CONFIG_PRIM_RX;
      00023E 90 00 5D         [24] 1041 	mov	dptr,#_RF24write_config_1_121
      000241 74 0F            [12] 1042 	mov	a,#0x0f
      000243 F0               [24] 1043 	movx	@dptr,a
                                   1044 ;	main.c:132: rf_write_register(RF_CONFIG,&config,1);
      000244 90 00 74         [24] 1045 	mov	dptr,#_rf_write_register_PARM_2
      000247 74 5D            [12] 1046 	mov	a,#_RF24write_config_1_121
      000249 F0               [24] 1047 	movx	@dptr,a
      00024A 74 00            [12] 1048 	mov	a,#(_RF24write_config_1_121 >> 8)
      00024C A3               [24] 1049 	inc	dptr
      00024D F0               [24] 1050 	movx	@dptr,a
      00024E E4               [12] 1051 	clr	a
      00024F A3               [24] 1052 	inc	dptr
      000250 F0               [24] 1053 	movx	@dptr,a
      000251 90 00 77         [24] 1054 	mov	dptr,#_rf_write_register_PARM_3
      000254 04               [12] 1055 	inc	a
      000255 F0               [24] 1056 	movx	@dptr,a
      000256 E4               [12] 1057 	clr	a
      000257 A3               [24] 1058 	inc	dptr
      000258 F0               [24] 1059 	movx	@dptr,a
      000259 75 82 00         [24] 1060 	mov	dpl,#0x00
      00025C C0 07            [24] 1061 	push	ar7
      00025E C0 06            [24] 1062 	push	ar6
      000260 12 06 C4         [24] 1063 	lcall	_rf_write_register
      000263 D0 06            [24] 1064 	pop	ar6
      000265 D0 07            [24] 1065 	pop	ar7
                                   1066 ;	main.c:134: base_addr[0] = nextnode;
      000267 90 00 A2         [24] 1067 	mov	dptr,#_base_addr
      00026A EF               [12] 1068 	mov	a,r7
      00026B F0               [24] 1069 	movx	@dptr,a
                                   1070 ;	main.c:135: rf_set_rx_addr(base_addr, 5, 0);
      00026C 90 00 7A         [24] 1071 	mov	dptr,#_rf_set_rx_addr_PARM_2
      00026F 74 05            [12] 1072 	mov	a,#0x05
      000271 F0               [24] 1073 	movx	@dptr,a
      000272 E4               [12] 1074 	clr	a
      000273 A3               [24] 1075 	inc	dptr
      000274 F0               [24] 1076 	movx	@dptr,a
      000275 90 00 7C         [24] 1077 	mov	dptr,#_rf_set_rx_addr_PARM_3
      000278 F0               [24] 1078 	movx	@dptr,a
      000279 90 00 A2         [24] 1079 	mov	dptr,#_base_addr
      00027C 75 F0 00         [24] 1080 	mov	b,#0x00
      00027F C0 06            [24] 1081 	push	ar6
      000281 12 07 02         [24] 1082 	lcall	_rf_set_rx_addr
                                   1083 ;	main.c:138: flush_fifo_irq();
      000284 12 01 1C         [24] 1084 	lcall	_flush_fifo_irq
      000287 D0 06            [24] 1085 	pop	ar6
                                   1086 ;	main.c:140: rf_set_ce();
      000289 D2 E8            [12] 1087 	setb	_RFCON_SB_RFCE 
      00028B 90 00 04         [24] 1088 	mov	dptr,#0x0004
      00028E C0 06            [24] 1089 	push	ar6
      000290 12 0B 66         [24] 1090 	lcall	_delay_us
                                   1091 ;	main.c:142: delay_us(130);
      000293 90 00 82         [24] 1092 	mov	dptr,#0x0082
      000296 12 0B 66         [24] 1093 	lcall	_delay_us
      000299 D0 06            [24] 1094 	pop	ar6
                                   1095 ;	main.c:144: return result;
      00029B 8E 82            [24] 1096 	mov	dpl,r6
      00029D 22               [24] 1097 	ret
                                   1098 ;------------------------------------------------------------
                                   1099 ;Allocation info for local variables in function 'RF24readMessage'
                                   1100 ;------------------------------------------------------------
                                   1101 ;buf                       Allocated with name '_RF24readMessage_buf_1_129'
                                   1102 ;__00010018                Allocated with name '_RF24readMessage___00010018_4_133'
                                   1103 ;payload_length            Allocated with name '_RF24readMessage_payload_length_1_130'
                                   1104 ;result                    Allocated with name '_RF24readMessage_result_4_133'
                                   1105 ;------------------------------------------------------------
                                   1106 ;	main.c:162: uint8_t RF24readMessage(uint8_t* buf) {
                                   1107 ;	-----------------------------------------
                                   1108 ;	 function RF24readMessage
                                   1109 ;	-----------------------------------------
      00029E                       1110 _RF24readMessage:
      00029E AF F0            [24] 1111 	mov	r7,b
      0002A0 AE 83            [24] 1112 	mov	r6,dph
      0002A2 E5 82            [12] 1113 	mov	a,dpl
      0002A4 90 00 5F         [24] 1114 	mov	dptr,#_RF24readMessage_buf_1_129
      0002A7 F0               [24] 1115 	movx	@dptr,a
      0002A8 EE               [12] 1116 	mov	a,r6
      0002A9 A3               [24] 1117 	inc	dptr
      0002AA F0               [24] 1118 	movx	@dptr,a
      0002AB EF               [12] 1119 	mov	a,r7
      0002AC A3               [24] 1120 	inc	dptr
      0002AD F0               [24] 1121 	movx	@dptr,a
                                   1122 ;	main.c:164: uint8_t payload_length = getDynamicPayloadSize();
      0002AE 90 00 63         [24] 1123 	mov	dptr,#_RF24readMessage_result_4_133
      0002B1 75 F0 00         [24] 1124 	mov	b,#0x00
      0002B4 12 06 48         [24] 1125 	lcall	_rf_read_rx_payload_width
      0002B7 90 00 63         [24] 1126 	mov	dptr,#_RF24readMessage_result_4_133
      0002BA E0               [24] 1127 	movx	a,@dptr
      0002BB FF               [12] 1128 	mov  r7,a
      0002BC 24 DF            [12] 1129 	add	a,#0xff - 0x20
      0002BE 50 1F            [24] 1130 	jnc	00102$
      0002C0 90 00 88         [24] 1131 	mov	dptr,#_rf_spi_execute_command_PARM_2
      0002C3 E4               [12] 1132 	clr	a
      0002C4 F0               [24] 1133 	movx	@dptr,a
      0002C5 A3               [24] 1134 	inc	dptr
      0002C6 F0               [24] 1135 	movx	@dptr,a
      0002C7 A3               [24] 1136 	inc	dptr
      0002C8 F0               [24] 1137 	movx	@dptr,a
      0002C9 90 00 8B         [24] 1138 	mov	dptr,#_rf_spi_execute_command_PARM_3
      0002CC F0               [24] 1139 	movx	@dptr,a
      0002CD A3               [24] 1140 	inc	dptr
      0002CE F0               [24] 1141 	movx	@dptr,a
      0002CF 90 00 8D         [24] 1142 	mov	dptr,#_rf_spi_execute_command_PARM_4
      0002D2 04               [12] 1143 	inc	a
      0002D3 F0               [24] 1144 	movx	@dptr,a
      0002D4 75 82 E2         [24] 1145 	mov	dpl,#0xe2
      0002D7 12 07 C1         [24] 1146 	lcall	_rf_spi_execute_command
      0002DA 90 00 63         [24] 1147 	mov	dptr,#_RF24readMessage_result_4_133
      0002DD E4               [12] 1148 	clr	a
      0002DE F0               [24] 1149 	movx	@dptr,a
      0002DF                       1150 00102$:
      0002DF 90 00 63         [24] 1151 	mov	dptr,#_RF24readMessage_result_4_133
      0002E2 E0               [24] 1152 	movx	a,@dptr
      0002E3 FF               [12] 1153 	mov	r7,a
      0002E4 90 00 62         [24] 1154 	mov	dptr,#_RF24readMessage_payload_length_1_130
      0002E7 F0               [24] 1155 	movx	@dptr,a
                                   1156 ;	main.c:166: rf_read_rx_payload(buf,payload_length);
      0002E8 90 00 5F         [24] 1157 	mov	dptr,#_RF24readMessage_buf_1_129
      0002EB E0               [24] 1158 	movx	a,@dptr
      0002EC FC               [12] 1159 	mov	r4,a
      0002ED A3               [24] 1160 	inc	dptr
      0002EE E0               [24] 1161 	movx	a,@dptr
      0002EF FD               [12] 1162 	mov	r5,a
      0002F0 A3               [24] 1163 	inc	dptr
      0002F1 E0               [24] 1164 	movx	a,@dptr
      0002F2 FE               [12] 1165 	mov	r6,a
      0002F3 90 00 6F         [24] 1166 	mov	dptr,#_rf_read_rx_payload_PARM_2
      0002F6 EF               [12] 1167 	mov	a,r7
      0002F7 F0               [24] 1168 	movx	@dptr,a
      0002F8 E4               [12] 1169 	clr	a
      0002F9 A3               [24] 1170 	inc	dptr
      0002FA F0               [24] 1171 	movx	@dptr,a
      0002FB 8C 82            [24] 1172 	mov	dpl,r4
      0002FD 8D 83            [24] 1173 	mov	dph,r5
      0002FF 8E F0            [24] 1174 	mov	b,r6
      000301 12 06 82         [24] 1175 	lcall	_rf_read_rx_payload
                                   1176 ;	main.c:168: rf_irq_clear_all();
      000304 12 0A 68         [24] 1177 	lcall	_rf_irq_clear_all
                                   1178 ;	main.c:169: return payload_length;
      000307 90 00 62         [24] 1179 	mov	dptr,#_RF24readMessage_payload_length_1_130
      00030A E0               [24] 1180 	movx	a,@dptr
      00030B F5 82            [12] 1181 	mov	dpl,a
      00030D 22               [24] 1182 	ret
                                   1183 ;------------------------------------------------------------
                                   1184 ;Allocation info for local variables in function 'process_rx'
                                   1185 ;------------------------------------------------------------
                                   1186 ;result                    Allocated with name '_process_rx_result_1_135'
                                   1187 ;------------------------------------------------------------
                                   1188 ;	main.c:173: uint8_t process_rx() {
                                   1189 ;	-----------------------------------------
                                   1190 ;	 function process_rx
                                   1191 ;	-----------------------------------------
      00030E                       1192 _process_rx:
                                   1193 ;	main.c:174: uint8_t result = 0xFF;
      00030E 90 00 64         [24] 1194 	mov	dptr,#_process_rx_result_1_135
      000311 74 FF            [12] 1195 	mov	a,#0xff
      000313 F0               [24] 1196 	movx	@dptr,a
                                   1197 ;	main.c:175: if ( RF24available() ) {
      000314 90 00 88         [24] 1198 	mov	dptr,#_rf_spi_execute_command_PARM_2
      000317 E4               [12] 1199 	clr	a
      000318 F0               [24] 1200 	movx	@dptr,a
      000319 A3               [24] 1201 	inc	dptr
      00031A F0               [24] 1202 	movx	@dptr,a
      00031B A3               [24] 1203 	inc	dptr
      00031C F0               [24] 1204 	movx	@dptr,a
      00031D 90 00 8B         [24] 1205 	mov	dptr,#_rf_spi_execute_command_PARM_3
      000320 F0               [24] 1206 	movx	@dptr,a
      000321 A3               [24] 1207 	inc	dptr
      000322 F0               [24] 1208 	movx	@dptr,a
      000323 90 00 8D         [24] 1209 	mov	dptr,#_rf_spi_execute_command_PARM_4
      000326 04               [12] 1210 	inc	a
      000327 F0               [24] 1211 	movx	@dptr,a
      000328 75 82 FF         [24] 1212 	mov	dpl,#0xff
      00032B 12 07 C1         [24] 1213 	lcall	_rf_spi_execute_command
      00032E E5 82            [12] 1214 	mov	a,dpl
      000330 30 E6 12         [24] 1215 	jnb	acc.6,00102$
                                   1216 ;	main.c:176: RF24readMessage(inMsg.array);
      000333 90 00 2A         [24] 1217 	mov	dptr,#_inMsg
      000336 75 F0 00         [24] 1218 	mov	b,#0x00
      000339 12 02 9E         [24] 1219 	lcall	_RF24readMessage
                                   1220 ;	main.c:177: result = inMsg.message.command;
      00033C 90 00 2A         [24] 1221 	mov	dptr,#_inMsg
      00033F E0               [24] 1222 	movx	a,@dptr
      000340 FF               [12] 1223 	mov	r7,a
      000341 90 00 64         [24] 1224 	mov	dptr,#_process_rx_result_1_135
      000344 F0               [24] 1225 	movx	@dptr,a
      000345                       1226 00102$:
                                   1227 ;	main.c:179: return result;
      000345 90 00 64         [24] 1228 	mov	dptr,#_process_rx_result_1_135
      000348 E0               [24] 1229 	movx	a,@dptr
      000349 F5 82            [12] 1230 	mov	dpl,a
      00034B 22               [24] 1231 	ret
                                   1232 ;------------------------------------------------------------
                                   1233 ;Allocation info for local variables in function 'process_time'
                                   1234 ;------------------------------------------------------------
                                   1235 ;sloc0                     Allocated with name '_process_time_sloc0_1_0'
                                   1236 ;wait_time                 Allocated with name '_process_time_wait_time_1_137'
                                   1237 ;entry                     Allocated with name '_process_time_entry_1_138'
                                   1238 ;------------------------------------------------------------
                                   1239 ;	main.c:183: void process_time(uint16_t wait_time) {
                                   1240 ;	-----------------------------------------
                                   1241 ;	 function process_time
                                   1242 ;	-----------------------------------------
      00034C                       1243 _process_time:
      00034C AF 83            [24] 1244 	mov	r7,dph
      00034E E5 82            [12] 1245 	mov	a,dpl
      000350 90 00 65         [24] 1246 	mov	dptr,#_process_time_wait_time_1_137
      000353 F0               [24] 1247 	movx	@dptr,a
      000354 EF               [12] 1248 	mov	a,r7
      000355 A3               [24] 1249 	inc	dptr
      000356 F0               [24] 1250 	movx	@dptr,a
                                   1251 ;	main.c:184: unsigned long entry = millis();
      000357 90 00 A7         [24] 1252 	mov	dptr,#_ml
      00035A E0               [24] 1253 	movx	a,@dptr
      00035B FC               [12] 1254 	mov	r4,a
      00035C A3               [24] 1255 	inc	dptr
      00035D E0               [24] 1256 	movx	a,@dptr
      00035E FD               [12] 1257 	mov	r5,a
      00035F A3               [24] 1258 	inc	dptr
      000360 E0               [24] 1259 	movx	a,@dptr
      000361 FE               [12] 1260 	mov	r6,a
      000362 A3               [24] 1261 	inc	dptr
      000363 E0               [24] 1262 	movx	a,@dptr
      000364 FF               [12] 1263 	mov	r7,a
                                   1264 ;	main.c:185: while ( (ml < entry+wait_time) ) {
      000365 90 00 65         [24] 1265 	mov	dptr,#_process_time_wait_time_1_137
      000368 E0               [24] 1266 	movx	a,@dptr
      000369 F5 08            [12] 1267 	mov	_process_time_sloc0_1_0,a
      00036B A3               [24] 1268 	inc	dptr
      00036C E0               [24] 1269 	movx	a,@dptr
      00036D F5 09            [12] 1270 	mov	(_process_time_sloc0_1_0 + 1),a
      00036F                       1271 00101$:
      00036F A8 08            [24] 1272 	mov	r0,_process_time_sloc0_1_0
      000371 A9 09            [24] 1273 	mov	r1,(_process_time_sloc0_1_0 + 1)
      000373 E4               [12] 1274 	clr	a
      000374 FA               [12] 1275 	mov	r2,a
      000375 FB               [12] 1276 	mov	r3,a
      000376 E8               [12] 1277 	mov	a,r0
      000377 2C               [12] 1278 	add	a,r4
      000378 F8               [12] 1279 	mov	r0,a
      000379 E9               [12] 1280 	mov	a,r1
      00037A 3D               [12] 1281 	addc	a,r5
      00037B F9               [12] 1282 	mov	r1,a
      00037C EA               [12] 1283 	mov	a,r2
      00037D 3E               [12] 1284 	addc	a,r6
      00037E FA               [12] 1285 	mov	r2,a
      00037F EB               [12] 1286 	mov	a,r3
      000380 3F               [12] 1287 	addc	a,r7
      000381 FB               [12] 1288 	mov	r3,a
      000382 C0 04            [24] 1289 	push	ar4
      000384 C0 05            [24] 1290 	push	ar5
      000386 C0 06            [24] 1291 	push	ar6
      000388 C0 07            [24] 1292 	push	ar7
      00038A 90 00 A7         [24] 1293 	mov	dptr,#_ml
      00038D E0               [24] 1294 	movx	a,@dptr
      00038E FC               [12] 1295 	mov	r4,a
      00038F A3               [24] 1296 	inc	dptr
      000390 E0               [24] 1297 	movx	a,@dptr
      000391 FD               [12] 1298 	mov	r5,a
      000392 A3               [24] 1299 	inc	dptr
      000393 E0               [24] 1300 	movx	a,@dptr
      000394 FE               [12] 1301 	mov	r6,a
      000395 A3               [24] 1302 	inc	dptr
      000396 E0               [24] 1303 	movx	a,@dptr
      000397 FF               [12] 1304 	mov	r7,a
      000398 C3               [12] 1305 	clr	c
      000399 EC               [12] 1306 	mov	a,r4
      00039A 98               [12] 1307 	subb	a,r0
      00039B ED               [12] 1308 	mov	a,r5
      00039C 99               [12] 1309 	subb	a,r1
      00039D EE               [12] 1310 	mov	a,r6
      00039E 9A               [12] 1311 	subb	a,r2
      00039F EF               [12] 1312 	mov	a,r7
      0003A0 9B               [12] 1313 	subb	a,r3
      0003A1 D0 07            [24] 1314 	pop	ar7
      0003A3 D0 06            [24] 1315 	pop	ar6
      0003A5 D0 05            [24] 1316 	pop	ar5
      0003A7 D0 04            [24] 1317 	pop	ar4
      0003A9 50 15            [24] 1318 	jnc	00104$
                                   1319 ;	main.c:186: process_rx();
      0003AB C0 07            [24] 1320 	push	ar7
      0003AD C0 06            [24] 1321 	push	ar6
      0003AF C0 05            [24] 1322 	push	ar5
      0003B1 C0 04            [24] 1323 	push	ar4
      0003B3 12 03 0E         [24] 1324 	lcall	_process_rx
      0003B6 D0 04            [24] 1325 	pop	ar4
      0003B8 D0 05            [24] 1326 	pop	ar5
      0003BA D0 06            [24] 1327 	pop	ar6
      0003BC D0 07            [24] 1328 	pop	ar7
      0003BE 80 AF            [24] 1329 	sjmp	00101$
      0003C0                       1330 00104$:
      0003C0 22               [24] 1331 	ret
                                   1332 ;------------------------------------------------------------
                                   1333 ;Allocation info for local variables in function 'process_type'
                                   1334 ;------------------------------------------------------------
                                   1335 ;sloc0                     Allocated with name '_process_type_sloc0_1_0'
                                   1336 ;response                  Allocated with name '_process_type_response_1_140'
                                   1337 ;res_type                  Allocated with name '_process_type_res_type_1_141'
                                   1338 ;entry                     Allocated with name '_process_type_entry_1_141'
                                   1339 ;__00020020                Allocated with name '_process_type___00020020_5_145'
                                   1340 ;__00030021                Allocated with name '_process_type___00030021_4_144'
                                   1341 ;sec                       Allocated with name '_process_type_sec_4_144'
                                   1342 ;------------------------------------------------------------
                                   1343 ;	main.c:190: bool process_type(uint8_t response) {
                                   1344 ;	-----------------------------------------
                                   1345 ;	 function process_type
                                   1346 ;	-----------------------------------------
      0003C1                       1347 _process_type:
      0003C1 E5 82            [12] 1348 	mov	a,dpl
      0003C3 90 00 67         [24] 1349 	mov	dptr,#_process_type_response_1_140
      0003C6 F0               [24] 1350 	movx	@dptr,a
                                   1351 ;	main.c:192: unsigned long entry = millis();
      0003C7 90 00 A7         [24] 1352 	mov	dptr,#_ml
      0003CA E0               [24] 1353 	movx	a,@dptr
      0003CB FC               [12] 1354 	mov	r4,a
      0003CC A3               [24] 1355 	inc	dptr
      0003CD E0               [24] 1356 	movx	a,@dptr
      0003CE FD               [12] 1357 	mov	r5,a
      0003CF A3               [24] 1358 	inc	dptr
      0003D0 E0               [24] 1359 	movx	a,@dptr
      0003D1 FE               [12] 1360 	mov	r6,a
      0003D2 A3               [24] 1361 	inc	dptr
      0003D3 E0               [24] 1362 	movx	a,@dptr
      0003D4 FF               [12] 1363 	mov	r7,a
                                   1364 ;	main.c:193: do {
      0003D5 90 00 67         [24] 1365 	mov	dptr,#_process_type_response_1_140
      0003D8 E0               [24] 1366 	movx	a,@dptr
      0003D9 FB               [12] 1367 	mov	r3,a
      0003DA 74 40            [12] 1368 	mov	a,#0x40
      0003DC 2C               [12] 1369 	add	a,r4
      0003DD F5 0A            [12] 1370 	mov	_process_type_sloc0_1_0,a
      0003DF 74 1F            [12] 1371 	mov	a,#0x1f
      0003E1 3D               [12] 1372 	addc	a,r5
      0003E2 F5 0B            [12] 1373 	mov	(_process_type_sloc0_1_0 + 1),a
      0003E4 E4               [12] 1374 	clr	a
      0003E5 3E               [12] 1375 	addc	a,r6
      0003E6 F5 0C            [12] 1376 	mov	(_process_type_sloc0_1_0 + 2),a
      0003E8 E4               [12] 1377 	clr	a
      0003E9 3F               [12] 1378 	addc	a,r7
      0003EA F5 0D            [12] 1379 	mov	(_process_type_sloc0_1_0 + 3),a
      0003EC                       1380 00102$:
                                   1381 ;	main.c:195: res_type = process_rx();
      0003EC C0 03            [24] 1382 	push	ar3
      0003EE C0 03            [24] 1383 	push	ar3
      0003F0 12 03 0E         [24] 1384 	lcall	_process_rx
      0003F3 AA 82            [24] 1385 	mov	r2,dpl
      0003F5 D0 03            [24] 1386 	pop	ar3
                                   1387 ;	main.c:196: } while ( (ml < entry+8000) && (res_type!=response) );
      0003F7 90 00 A7         [24] 1388 	mov	dptr,#_ml
      0003FA E0               [24] 1389 	movx	a,@dptr
      0003FB F8               [12] 1390 	mov	r0,a
      0003FC A3               [24] 1391 	inc	dptr
      0003FD E0               [24] 1392 	movx	a,@dptr
      0003FE F9               [12] 1393 	mov	r1,a
      0003FF A3               [24] 1394 	inc	dptr
      000400 E0               [24] 1395 	movx	a,@dptr
      000401 FB               [12] 1396 	mov	r3,a
      000402 A3               [24] 1397 	inc	dptr
      000403 E0               [24] 1398 	movx	a,@dptr
      000404 FF               [12] 1399 	mov	r7,a
      000405 C3               [12] 1400 	clr	c
      000406 E8               [12] 1401 	mov	a,r0
      000407 95 0A            [12] 1402 	subb	a,_process_type_sloc0_1_0
      000409 E9               [12] 1403 	mov	a,r1
      00040A 95 0B            [12] 1404 	subb	a,(_process_type_sloc0_1_0 + 1)
      00040C EB               [12] 1405 	mov	a,r3
      00040D 95 0C            [12] 1406 	subb	a,(_process_type_sloc0_1_0 + 2)
      00040F EF               [12] 1407 	mov	a,r7
      000410 95 0D            [12] 1408 	subb	a,(_process_type_sloc0_1_0 + 3)
      000412 D0 03            [24] 1409 	pop	ar3
      000414 50 04            [24] 1410 	jnc	00104$
      000416 EA               [12] 1411 	mov	a,r2
      000417 B5 03 D2         [24] 1412 	cjne	a,ar3,00102$
      00041A                       1413 00104$:
                                   1414 ;	main.c:198: return (res_type==response);
      00041A 90 00 67         [24] 1415 	mov	dptr,#_process_type_response_1_140
      00041D E0               [24] 1416 	movx	a,@dptr
      00041E FF               [12] 1417 	mov	r7,a
      00041F EA               [12] 1418 	mov	a,r2
      000420 B5 07 04         [24] 1419 	cjne	a,ar7,00117$
      000423 74 01            [12] 1420 	mov	a,#0x01
      000425 80 01            [24] 1421 	sjmp	00118$
      000427                       1422 00117$:
      000427 E4               [12] 1423 	clr	a
      000428                       1424 00118$:
      000428 F5 82            [12] 1425 	mov	dpl,a
      00042A 22               [24] 1426 	ret
                                   1427 ;------------------------------------------------------------
                                   1428 ;Allocation info for local variables in function 'SendMessage'
                                   1429 ;------------------------------------------------------------
                                   1430 ;address                   Allocated with name '_SendMessage_address_1_146'
                                   1431 ;------------------------------------------------------------
                                   1432 ;	main.c:201: bool SendMessage(uint8_t address) {
                                   1433 ;	-----------------------------------------
                                   1434 ;	 function SendMessage
                                   1435 ;	-----------------------------------------
      00042B                       1436 _SendMessage:
      00042B E5 82            [12] 1437 	mov	a,dpl
      00042D 90 00 68         [24] 1438 	mov	dptr,#_SendMessage_address_1_146
      000430 F0               [24] 1439 	movx	@dptr,a
                                   1440 ;	main.c:202: return RF24write(address, outMsg.array, APOLLON_SIZE, (address == BROADCAST_ADDRESS) );
      000431 E0               [24] 1441 	movx	a,@dptr
      000432 FF               [12] 1442 	mov	r7,a
      000433 90 00 57         [24] 1443 	mov	dptr,#_RF24write_PARM_2
      000436 74 09            [12] 1444 	mov	a,#_outMsg
      000438 F0               [24] 1445 	movx	@dptr,a
      000439 74 00            [12] 1446 	mov	a,#(_outMsg >> 8)
      00043B A3               [24] 1447 	inc	dptr
      00043C F0               [24] 1448 	movx	@dptr,a
      00043D E4               [12] 1449 	clr	a
      00043E A3               [24] 1450 	inc	dptr
      00043F F0               [24] 1451 	movx	@dptr,a
      000440 BF FF 03         [24] 1452 	cjne	r7,#0xff,00103$
      000443 04               [12] 1453 	inc	a
      000444 80 01            [24] 1454 	sjmp	00104$
      000446                       1455 00103$:
      000446 E4               [12] 1456 	clr	a
      000447                       1457 00104$:
      000447 FE               [12] 1458 	mov	r6,a
      000448 90 00 5A         [24] 1459 	mov	dptr,#_RF24write_PARM_3
      00044B 74 0A            [12] 1460 	mov	a,#0x0a
      00044D F0               [24] 1461 	movx	@dptr,a
      00044E 90 00 5B         [24] 1462 	mov	dptr,#_RF24write_PARM_4
      000451 EE               [12] 1463 	mov	a,r6
      000452 F0               [24] 1464 	movx	@dptr,a
      000453 8F 82            [24] 1465 	mov	dpl,r7
      000455 02 01 53         [24] 1466 	ljmp	_RF24write
                                   1467 ;------------------------------------------------------------
                                   1468 ;Allocation info for local variables in function 'main'
                                   1469 ;------------------------------------------------------------
                                   1470 ;__00010030                Allocated with name '_main___00010030_4_179'
                                   1471 ;__00010024                Allocated with name '_main___00010024_4_163'
                                   1472 ;__00020025                Allocated with name '_main___00020025_5_168'
                                   1473 ;sec                       Allocated with name '_main_sec_6_169'
                                   1474 ;config                    Allocated with name '_main_config_7_173'
                                   1475 ;__00020031                Allocated with name '_main___00020031_3_178'
                                   1476 ;sec                       Allocated with name '_main_sec_3_178'
                                   1477 ;------------------------------------------------------------
                                   1478 ;	main.c:252: void main(){
                                   1479 ;	-----------------------------------------
                                   1480 ;	 function main
                                   1481 ;	-----------------------------------------
      000458                       1482 _main:
                                   1483 ;	../nRF24LE1_SDK/include/inline/watchdog_setup.inc:11: if (!pwr_clk_mgmt_is_clklf_enabled())
      000458 74 07            [12] 1484 	mov	a,#0x07
      00045A 55 AD            [12] 1485 	anl	a,_CLKLFCTRL
      00045C FF               [12] 1486 	mov	r7,a
      00045D BF 07 0B         [24] 1487 	cjne	r7,#0x07,00106$
                                   1488 ;	../nRF24LE1_SDK/include/inline/watchdog_setup.inc:14: pwr_clk_mgmt_clklf_configure(PWR_CLK_MGMT_CLKLF_CONFIG_OPTION_CLK_SRC_RCOSC32K);
      000460 75 82 01         [24] 1489 	mov	dpl,#0x01
      000463 12 0B 52         [24] 1490 	lcall	_pwr_clk_mgmt_clklf_configure
                                   1491 ;	../nRF24LE1_SDK/include/inline/watchdog_setup.inc:15: pwr_clk_mgmt_wait_until_clklf_is_ready();
      000466                       1492 00101$:
      000466 E5 AD            [12] 1493 	mov	a,_CLKLFCTRL
      000468 30 E6 FB         [24] 1494 	jnb	acc.6,00101$
                                   1495 ;	main.c:236: watchdog_setup();
      00046B                       1496 00106$:
                                   1497 ;	main.c:244: );
      00046B 90 E0 0C         [24] 1498 	mov	dptr,#0xe00c
      00046E 12 0B 1F         [24] 1499 	lcall	_adc_configure
                                   1500 ;	main.c:246: pinMode(GPIO_PIN_ID_P0_0, OUTPUT);
      000471 90 00 90         [24] 1501 	mov	dptr,#_gpio_pin_configure_PARM_2
      000474 74 01            [12] 1502 	mov	a,#0x01
      000476 F0               [24] 1503 	movx	@dptr,a
      000477 75 82 00         [24] 1504 	mov	dpl,#0x00
      00047A 12 08 1D         [24] 1505 	lcall	_gpio_pin_configure
                                   1506 ;	main.c:208: rf_spi_configure_enable();
      00047D 12 07 87         [24] 1507 	lcall	_rf_spi_configure_enable
                                   1508 ;	main.c:209: config = RF_EN_AA_ENAA_P0;
      000480 90 00 6B         [24] 1509 	mov	dptr,#_main_config_7_173
      000483 74 01            [12] 1510 	mov	a,#0x01
      000485 F0               [24] 1511 	movx	@dptr,a
                                   1512 ;	main.c:210: rf_write_register(RF_EN_AA, &config, 1);
      000486 90 00 74         [24] 1513 	mov	dptr,#_rf_write_register_PARM_2
      000489 74 6B            [12] 1514 	mov	a,#_main_config_7_173
      00048B F0               [24] 1515 	movx	@dptr,a
      00048C 74 00            [12] 1516 	mov	a,#(_main_config_7_173 >> 8)
      00048E A3               [24] 1517 	inc	dptr
      00048F F0               [24] 1518 	movx	@dptr,a
      000490 E4               [12] 1519 	clr	a
      000491 A3               [24] 1520 	inc	dptr
      000492 F0               [24] 1521 	movx	@dptr,a
      000493 90 00 77         [24] 1522 	mov	dptr,#_rf_write_register_PARM_3
      000496 04               [12] 1523 	inc	a
      000497 F0               [24] 1524 	movx	@dptr,a
      000498 E4               [12] 1525 	clr	a
      000499 A3               [24] 1526 	inc	dptr
      00049A F0               [24] 1527 	movx	@dptr,a
      00049B 75 82 01         [24] 1528 	mov	dpl,#0x01
      00049E 12 06 C4         [24] 1529 	lcall	_rf_write_register
                                   1530 ;	main.c:211: config = RF_EN_RXADDR_ERX_P0;
      0004A1 90 00 6B         [24] 1531 	mov	dptr,#_main_config_7_173
      0004A4 74 01            [12] 1532 	mov	a,#0x01
      0004A6 F0               [24] 1533 	movx	@dptr,a
                                   1534 ;	main.c:212: rf_write_register(RF_EN_RXADDR, &config, 1);
      0004A7 90 00 74         [24] 1535 	mov	dptr,#_rf_write_register_PARM_2
      0004AA 74 6B            [12] 1536 	mov	a,#_main_config_7_173
      0004AC F0               [24] 1537 	movx	@dptr,a
      0004AD 74 00            [12] 1538 	mov	a,#(_main_config_7_173 >> 8)
      0004AF A3               [24] 1539 	inc	dptr
      0004B0 F0               [24] 1540 	movx	@dptr,a
      0004B1 E4               [12] 1541 	clr	a
      0004B2 A3               [24] 1542 	inc	dptr
      0004B3 F0               [24] 1543 	movx	@dptr,a
      0004B4 90 00 77         [24] 1544 	mov	dptr,#_rf_write_register_PARM_3
      0004B7 04               [12] 1545 	inc	a
      0004B8 F0               [24] 1546 	movx	@dptr,a
      0004B9 E4               [12] 1547 	clr	a
      0004BA A3               [24] 1548 	inc	dptr
      0004BB F0               [24] 1549 	movx	@dptr,a
      0004BC 75 82 02         [24] 1550 	mov	dpl,#0x02
      0004BF 12 06 C4         [24] 1551 	lcall	_rf_write_register
                                   1552 ;	main.c:213: config = RF_SETUP_AW_5BYTES;
      0004C2 90 00 6B         [24] 1553 	mov	dptr,#_main_config_7_173
      0004C5 74 03            [12] 1554 	mov	a,#0x03
      0004C7 F0               [24] 1555 	movx	@dptr,a
                                   1556 ;	main.c:214: rf_write_register(RF_SETUP_AW, &config, 1);
      0004C8 90 00 74         [24] 1557 	mov	dptr,#_rf_write_register_PARM_2
      0004CB 74 6B            [12] 1558 	mov	a,#_main_config_7_173
      0004CD F0               [24] 1559 	movx	@dptr,a
      0004CE 74 00            [12] 1560 	mov	a,#(_main_config_7_173 >> 8)
      0004D0 A3               [24] 1561 	inc	dptr
      0004D1 F0               [24] 1562 	movx	@dptr,a
      0004D2 E4               [12] 1563 	clr	a
      0004D3 A3               [24] 1564 	inc	dptr
      0004D4 F0               [24] 1565 	movx	@dptr,a
      0004D5 90 00 77         [24] 1566 	mov	dptr,#_rf_write_register_PARM_3
      0004D8 04               [12] 1567 	inc	a
      0004D9 F0               [24] 1568 	movx	@dptr,a
      0004DA E4               [12] 1569 	clr	a
      0004DB A3               [24] 1570 	inc	dptr
      0004DC F0               [24] 1571 	movx	@dptr,a
      0004DD 75 82 03         [24] 1572 	mov	dpl,#0x03
      0004E0 12 06 C4         [24] 1573 	lcall	_rf_write_register
                                   1574 ;	main.c:215: config = RF_SETUP_RETR_ARD_1500 | RF_SETUP_RETR_ARC_5;
      0004E3 90 00 6B         [24] 1575 	mov	dptr,#_main_config_7_173
      0004E6 74 55            [12] 1576 	mov	a,#0x55
      0004E8 F0               [24] 1577 	movx	@dptr,a
                                   1578 ;	main.c:216: rf_write_register(RF_SETUP_RETR, &config, 1);
      0004E9 90 00 74         [24] 1579 	mov	dptr,#_rf_write_register_PARM_2
      0004EC 74 6B            [12] 1580 	mov	a,#_main_config_7_173
      0004EE F0               [24] 1581 	movx	@dptr,a
      0004EF 74 00            [12] 1582 	mov	a,#(_main_config_7_173 >> 8)
      0004F1 A3               [24] 1583 	inc	dptr
      0004F2 F0               [24] 1584 	movx	@dptr,a
      0004F3 E4               [12] 1585 	clr	a
      0004F4 A3               [24] 1586 	inc	dptr
      0004F5 F0               [24] 1587 	movx	@dptr,a
      0004F6 90 00 77         [24] 1588 	mov	dptr,#_rf_write_register_PARM_3
      0004F9 04               [12] 1589 	inc	a
      0004FA F0               [24] 1590 	movx	@dptr,a
      0004FB E4               [12] 1591 	clr	a
      0004FC A3               [24] 1592 	inc	dptr
      0004FD F0               [24] 1593 	movx	@dptr,a
      0004FE 75 82 04         [24] 1594 	mov	dpl,#0x04
      000501 12 06 C4         [24] 1595 	lcall	_rf_write_register
                                   1596 ;	main.c:217: config = RF24_CHANNEL;
      000504 90 00 6B         [24] 1597 	mov	dptr,#_main_config_7_173
      000507 74 54            [12] 1598 	mov	a,#0x54
      000509 F0               [24] 1599 	movx	@dptr,a
                                   1600 ;	main.c:218: rf_write_register(RF_RF_CH, &config, 1);
      00050A 90 00 74         [24] 1601 	mov	dptr,#_rf_write_register_PARM_2
      00050D 74 6B            [12] 1602 	mov	a,#_main_config_7_173
      00050F F0               [24] 1603 	movx	@dptr,a
      000510 74 00            [12] 1604 	mov	a,#(_main_config_7_173 >> 8)
      000512 A3               [24] 1605 	inc	dptr
      000513 F0               [24] 1606 	movx	@dptr,a
      000514 E4               [12] 1607 	clr	a
      000515 A3               [24] 1608 	inc	dptr
      000516 F0               [24] 1609 	movx	@dptr,a
      000517 90 00 77         [24] 1610 	mov	dptr,#_rf_write_register_PARM_3
      00051A 04               [12] 1611 	inc	a
      00051B F0               [24] 1612 	movx	@dptr,a
      00051C E4               [12] 1613 	clr	a
      00051D A3               [24] 1614 	inc	dptr
      00051E F0               [24] 1615 	movx	@dptr,a
      00051F 75 82 05         [24] 1616 	mov	dpl,#0x05
      000522 12 06 C4         [24] 1617 	lcall	_rf_write_register
                                   1618 ;	main.c:219: config = RF24_PA_LEVEL | RF24_DATARATE;
      000525 90 00 6B         [24] 1619 	mov	dptr,#_main_config_7_173
      000528 74 26            [12] 1620 	mov	a,#0x26
      00052A F0               [24] 1621 	movx	@dptr,a
                                   1622 ;	main.c:220: rf_write_register(RF_RF_SETUP, &config, 1);
      00052B 90 00 74         [24] 1623 	mov	dptr,#_rf_write_register_PARM_2
      00052E 74 6B            [12] 1624 	mov	a,#_main_config_7_173
      000530 F0               [24] 1625 	movx	@dptr,a
      000531 74 00            [12] 1626 	mov	a,#(_main_config_7_173 >> 8)
      000533 A3               [24] 1627 	inc	dptr
      000534 F0               [24] 1628 	movx	@dptr,a
      000535 E4               [12] 1629 	clr	a
      000536 A3               [24] 1630 	inc	dptr
      000537 F0               [24] 1631 	movx	@dptr,a
      000538 90 00 77         [24] 1632 	mov	dptr,#_rf_write_register_PARM_3
      00053B 04               [12] 1633 	inc	a
      00053C F0               [24] 1634 	movx	@dptr,a
      00053D E4               [12] 1635 	clr	a
      00053E A3               [24] 1636 	inc	dptr
      00053F F0               [24] 1637 	movx	@dptr,a
      000540 75 82 06         [24] 1638 	mov	dpl,#0x06
      000543 12 06 C4         [24] 1639 	lcall	_rf_write_register
                                   1640 ;	main.c:222: config = 0x73;
      000546 90 00 6B         [24] 1641 	mov	dptr,#_main_config_7_173
      000549 74 73            [12] 1642 	mov	a,#0x73
      00054B F0               [24] 1643 	movx	@dptr,a
                                   1644 ;	main.c:223: rf_spi_execute_command(ACTIVATE,&config,1,false);
      00054C 90 00 88         [24] 1645 	mov	dptr,#_rf_spi_execute_command_PARM_2
      00054F 74 6B            [12] 1646 	mov	a,#_main_config_7_173
      000551 F0               [24] 1647 	movx	@dptr,a
      000552 74 00            [12] 1648 	mov	a,#(_main_config_7_173 >> 8)
      000554 A3               [24] 1649 	inc	dptr
      000555 F0               [24] 1650 	movx	@dptr,a
      000556 E4               [12] 1651 	clr	a
      000557 A3               [24] 1652 	inc	dptr
      000558 F0               [24] 1653 	movx	@dptr,a
      000559 90 00 8B         [24] 1654 	mov	dptr,#_rf_spi_execute_command_PARM_3
      00055C 04               [12] 1655 	inc	a
      00055D F0               [24] 1656 	movx	@dptr,a
      00055E E4               [12] 1657 	clr	a
      00055F A3               [24] 1658 	inc	dptr
      000560 F0               [24] 1659 	movx	@dptr,a
      000561 90 00 8D         [24] 1660 	mov	dptr,#_rf_spi_execute_command_PARM_4
      000564 F0               [24] 1661 	movx	@dptr,a
      000565 75 82 50         [24] 1662 	mov	dpl,#0x50
      000568 12 07 C1         [24] 1663 	lcall	_rf_spi_execute_command
                                   1664 ;	main.c:225: config = RF_DYNPD_DPL_P0;
      00056B 90 00 6B         [24] 1665 	mov	dptr,#_main_config_7_173
      00056E 74 01            [12] 1666 	mov	a,#0x01
      000570 F0               [24] 1667 	movx	@dptr,a
                                   1668 ;	main.c:226: rf_write_register(RF_DYNPD, &config, 1);
      000571 90 00 74         [24] 1669 	mov	dptr,#_rf_write_register_PARM_2
      000574 74 6B            [12] 1670 	mov	a,#_main_config_7_173
      000576 F0               [24] 1671 	movx	@dptr,a
      000577 74 00            [12] 1672 	mov	a,#(_main_config_7_173 >> 8)
      000579 A3               [24] 1673 	inc	dptr
      00057A F0               [24] 1674 	movx	@dptr,a
      00057B E4               [12] 1675 	clr	a
      00057C A3               [24] 1676 	inc	dptr
      00057D F0               [24] 1677 	movx	@dptr,a
      00057E 90 00 77         [24] 1678 	mov	dptr,#_rf_write_register_PARM_3
      000581 04               [12] 1679 	inc	a
      000582 F0               [24] 1680 	movx	@dptr,a
      000583 E4               [12] 1681 	clr	a
      000584 A3               [24] 1682 	inc	dptr
      000585 F0               [24] 1683 	movx	@dptr,a
      000586 75 82 1C         [24] 1684 	mov	dpl,#0x1c
      000589 12 06 C4         [24] 1685 	lcall	_rf_write_register
                                   1686 ;	main.c:227: config = RF_FEATURE_EN_DPL | RF_FEATURE_EN_ACK_PAY;
      00058C 90 00 6B         [24] 1687 	mov	dptr,#_main_config_7_173
      00058F 74 06            [12] 1688 	mov	a,#0x06
      000591 F0               [24] 1689 	movx	@dptr,a
                                   1690 ;	main.c:228: rf_write_register(RF_FEATURE, &config, 1);
      000592 90 00 74         [24] 1691 	mov	dptr,#_rf_write_register_PARM_2
      000595 74 6B            [12] 1692 	mov	a,#_main_config_7_173
      000597 F0               [24] 1693 	movx	@dptr,a
      000598 74 00            [12] 1694 	mov	a,#(_main_config_7_173 >> 8)
      00059A A3               [24] 1695 	inc	dptr
      00059B F0               [24] 1696 	movx	@dptr,a
      00059C E4               [12] 1697 	clr	a
      00059D A3               [24] 1698 	inc	dptr
      00059E F0               [24] 1699 	movx	@dptr,a
      00059F 90 00 77         [24] 1700 	mov	dptr,#_rf_write_register_PARM_3
      0005A2 04               [12] 1701 	inc	a
      0005A3 F0               [24] 1702 	movx	@dptr,a
      0005A4 E4               [12] 1703 	clr	a
      0005A5 A3               [24] 1704 	inc	dptr
      0005A6 F0               [24] 1705 	movx	@dptr,a
      0005A7 75 82 1D         [24] 1706 	mov	dpl,#0x1d
      0005AA 12 06 C4         [24] 1707 	lcall	_rf_write_register
                                   1708 ;	main.c:229: rf_power_up_param(false, RF_CONFIG_PWR_UP | RF_CONFIG_CRCO | RF_CONFIG_EN_CRC);
      0005AD 90 00 92         [24] 1709 	mov	dptr,#_rf_power_up_param_PARM_2
      0005B0 74 0E            [12] 1710 	mov	a,#0x0e
      0005B2 F0               [24] 1711 	movx	@dptr,a
      0005B3 75 82 00         [24] 1712 	mov	dpl,#0x00
      0005B6 12 0A 11         [24] 1713 	lcall	_rf_power_up_param
                                   1714 ;	main.c:231: delay_us(130);
      0005B9 90 00 82         [24] 1715 	mov	dptr,#0x0082
      0005BC 12 0B 66         [24] 1716 	lcall	_delay_us
                                   1717 ;	main.c:64: interrupt_control_global_enable();
      0005BF D2 AF            [12] 1718 	setb	_IEN0_SB_GLOBAL 
                                   1719 ;	main.c:65: interrupt_control_t0_enable();
      0005C1 D2 A9            [12] 1720 	setb	_IEN0_SB_T0 
                                   1721 ;	main.c:66: timer0_configure(TIMER0_CONFIG_OPTION_MODE_3_TWO_8_BIT_CTRS_TMRS,TLSTART);
      0005C3 90 00 85         [24] 1722 	mov	dptr,#_timer0_configure_PARM_2
      0005C6 74 22            [12] 1723 	mov	a,#0x22
      0005C8 F0               [24] 1724 	movx	@dptr,a
      0005C9 E4               [12] 1725 	clr	a
      0005CA A3               [24] 1726 	inc	dptr
      0005CB F0               [24] 1727 	movx	@dptr,a
      0005CC 75 82 03         [24] 1728 	mov	dpl,#0x03
      0005CF 12 07 8E         [24] 1729 	lcall	_timer0_configure
                                   1730 ;	main.c:67: timer0_run();
      0005D2 D2 8C            [12] 1731 	setb	_TCON_SB_TR0 
                                   1732 ;	main.c:260: BuildMessage(CONFIGURATION);
      0005D4 75 82 00         [24] 1733 	mov	dpl,#0x00
      0005D7 12 00 B4         [24] 1734 	lcall	_BuildMessage
                                   1735 ;	main.c:261: SendMessage(BROADCAST_ADDRESS);
      0005DA 75 82 FF         [24] 1736 	mov	dpl,#0xff
      0005DD 12 04 2B         [24] 1737 	lcall	_SendMessage
                                   1738 ;	main.c:262: process_type(CONFIGURATION);
      0005E0 75 82 00         [24] 1739 	mov	dpl,#0x00
      0005E3 12 03 C1         [24] 1740 	lcall	_process_type
                                   1741 ;	main.c:264: BuildMessage(ASK_SEND_DATA);
      0005E6 75 82 01         [24] 1742 	mov	dpl,#0x01
      0005E9 12 00 B4         [24] 1743 	lcall	_BuildMessage
                                   1744 ;	main.c:265: SendMessage(BROADCAST_ADDRESS);
      0005EC 75 82 FF         [24] 1745 	mov	dpl,#0xff
      0005EF 12 04 2B         [24] 1746 	lcall	_SendMessage
                                   1747 ;	main.c:266: process_type(ASK_SEND_DATA);
      0005F2 75 82 01         [24] 1748 	mov	dpl,#0x01
      0005F5 12 03 C1         [24] 1749 	lcall	_process_type
                                   1750 ;	main.c:270: uvValue = 3;
      0005F8 90 00 01         [24] 1751 	mov	dptr,#_uvValue
      0005FB 74 03            [12] 1752 	mov	a,#0x03
      0005FD F0               [24] 1753 	movx	@dptr,a
      0005FE E4               [12] 1754 	clr	a
      0005FF A3               [24] 1755 	inc	dptr
      000600 F0               [24] 1756 	movx	@dptr,a
      000601 A3               [24] 1757 	inc	dptr
      000602 F0               [24] 1758 	movx	@dptr,a
      000603 A3               [24] 1759 	inc	dptr
      000604 F0               [24] 1760 	movx	@dptr,a
                                   1761 ;	main.c:271: brightValue =  521;
      000605 90 00 05         [24] 1762 	mov	dptr,#_brightValue
      000608 74 09            [12] 1763 	mov	a,#0x09
      00060A F0               [24] 1764 	movx	@dptr,a
      00060B 74 02            [12] 1765 	mov	a,#0x02
      00060D A3               [24] 1766 	inc	dptr
      00060E F0               [24] 1767 	movx	@dptr,a
      00060F E4               [12] 1768 	clr	a
      000610 A3               [24] 1769 	inc	dptr
      000611 F0               [24] 1770 	movx	@dptr,a
      000612 A3               [24] 1771 	inc	dptr
      000613 F0               [24] 1772 	movx	@dptr,a
                                   1773 ;	main.c:272: BuildApollonMessage(SEND_DATA,uvValue,brightValue);
      000614 90 00 4C         [24] 1774 	mov	dptr,#_BuildApollonMessage_PARM_2
      000617 74 03            [12] 1775 	mov	a,#0x03
      000619 F0               [24] 1776 	movx	@dptr,a
      00061A E4               [12] 1777 	clr	a
      00061B A3               [24] 1778 	inc	dptr
      00061C F0               [24] 1779 	movx	@dptr,a
      00061D A3               [24] 1780 	inc	dptr
      00061E F0               [24] 1781 	movx	@dptr,a
      00061F A3               [24] 1782 	inc	dptr
      000620 F0               [24] 1783 	movx	@dptr,a
      000621 90 00 50         [24] 1784 	mov	dptr,#_BuildApollonMessage_PARM_3
      000624 74 09            [12] 1785 	mov	a,#0x09
      000626 F0               [24] 1786 	movx	@dptr,a
      000627 74 02            [12] 1787 	mov	a,#0x02
      000629 A3               [24] 1788 	inc	dptr
      00062A F0               [24] 1789 	movx	@dptr,a
      00062B E4               [12] 1790 	clr	a
      00062C A3               [24] 1791 	inc	dptr
      00062D F0               [24] 1792 	movx	@dptr,a
      00062E A3               [24] 1793 	inc	dptr
      00062F F0               [24] 1794 	movx	@dptr,a
      000630 75 82 02         [24] 1795 	mov	dpl,#0x02
      000633 12 00 C6         [24] 1796 	lcall	_BuildApollonMessage
                                   1797 ;	main.c:273: SendMessage(BROADCAST_ADDRESS);
      000636 75 82 FF         [24] 1798 	mov	dpl,#0xff
      000639 12 04 2B         [24] 1799 	lcall	_SendMessage
                                   1800 ;	main.c:274: process_type(SEND_DATA);
      00063C 75 82 02         [24] 1801 	mov	dpl,#0x02
      00063F 12 03 C1         [24] 1802 	lcall	_process_type
                                   1803 ;	main.c:275: process_time(1000);
      000642 90 03 E8         [24] 1804 	mov	dptr,#0x03e8
      000645 02 03 4C         [24] 1805 	ljmp	_process_time
                                   1806 	.area CSEG    (CODE)
                                   1807 	.area CONST   (CODE)
                                   1808 	.area XINIT   (CODE)
      000BFF                       1809 __xinit__base_addr:
      000BFF FF                    1810 	.db #0xff	; 255
      000C00 FC                    1811 	.db #0xfc	; 252
      000C01 E1                    1812 	.db #0xe1	; 225
      000C02 A8                    1813 	.db #0xa8	; 168
      000C03 A8                    1814 	.db #0xa8	; 168
      000C04                       1815 __xinit__ml:
      000C04 00 00 00 00           1816 	.byte #0x00,#0x00,#0x00,#0x00	; 0
      000C08                       1817 __xinit__mcs:
      000C08 00                    1818 	.db #0x00	; 0
                                   1819 	.area CABS    (ABS,CODE)
